
main.elf:     file format elf32-avr

Sections:
Idx Name          Size      VMA       LMA       File off  Algn
  0 .text         00001daa  00000000  00000000  000000b4  2**1
                  CONTENTS, ALLOC, LOAD, READONLY, CODE
  1 .data         00000560  00800060  00001daa  00001e5e  2**0
                  CONTENTS, ALLOC, LOAD, DATA
  2 .bss          00000082  008005c0  008005c0  000023be  2**0
                  ALLOC
  3 .eeprom       00000030  00810000  00810000  000023be  2**0
                  CONTENTS, ALLOC, LOAD, DATA
  4 .stab         000029ac  00000000  00000000  000023f0  2**2
                  CONTENTS, READONLY, DEBUGGING
  5 .stabstr      00000b7d  00000000  00000000  00004d9c  2**0
                  CONTENTS, READONLY, DEBUGGING
  6 .comment      0000002f  00000000  00000000  00005919  2**0
                  CONTENTS, READONLY
  7 .debug_aranges 00000330  00000000  00000000  00005948  2**0
                  CONTENTS, READONLY, DEBUGGING
  8 .debug_info   0000449e  00000000  00000000  00005c78  2**0
                  CONTENTS, READONLY, DEBUGGING
  9 .debug_abbrev 00000b1a  00000000  00000000  0000a116  2**0
                  CONTENTS, READONLY, DEBUGGING
 10 .debug_line   00001552  00000000  00000000  0000ac30  2**0
                  CONTENTS, READONLY, DEBUGGING
 11 .debug_frame  00001128  00000000  00000000  0000c184  2**2
                  CONTENTS, READONLY, DEBUGGING
 12 .debug_str    000006f8  00000000  00000000  0000d2ac  2**0
                  CONTENTS, READONLY, DEBUGGING
 13 .debug_loc    00005e8a  00000000  00000000  0000d9a4  2**0
                  CONTENTS, READONLY, DEBUGGING
 14 .debug_ranges 000002c0  00000000  00000000  0001382e  2**0
                  CONTENTS, READONLY, DEBUGGING

Disassembly of section .text:

00000000 <__vectors>:
		}
	}
}

unsigned char gol_count_neighbors (int x, int y, int z)
{
       0:	0c 94 2a 00 	jmp	0x54	; 0x54 <__ctors_end>
       4:	0c 94 47 00 	jmp	0x8e	; 0x8e <__bad_interrupt>
       8:	0c 94 47 00 	jmp	0x8e	; 0x8e <__bad_interrupt>
       c:	0c 94 47 00 	jmp	0x8e	; 0x8e <__bad_interrupt>
      10:	0c 94 23 0d 	jmp	0x1a46	; 0x1a46 <__vector_4>
      14:	0c 94 47 00 	jmp	0x8e	; 0x8e <__bad_interrupt>
      18:	0c 94 47 00 	jmp	0x8e	; 0x8e <__bad_interrupt>
      1c:	0c 94 47 00 	jmp	0x8e	; 0x8e <__bad_interrupt>
      20:	0c 94 47 00 	jmp	0x8e	; 0x8e <__bad_interrupt>
      24:	0c 94 47 00 	jmp	0x8e	; 0x8e <__bad_interrupt>
      28:	0c 94 47 00 	jmp	0x8e	; 0x8e <__bad_interrupt>
      2c:	0c 94 47 00 	jmp	0x8e	; 0x8e <__bad_interrupt>
	int ix, iy, iz; // offset 1 in each direction in each dimension
	int nx, ny, nz; // neighbours address.
	
	unsigned char neigh = 0; // number of alive neighbours.
	
	for (ix = -1; ix < 2; ix++)
      30:	0c 94 47 00 	jmp	0x8e	; 0x8e <__bad_interrupt>
unsigned char gol_count_neighbors (int x, int y, int z)
{
	int ix, iy, iz; // offset 1 in each direction in each dimension
	int nx, ny, nz; // neighbours address.
	
	unsigned char neigh = 0; // number of alive neighbours.
      34:	0c 94 47 00 	jmp	0x8e	; 0x8e <__bad_interrupt>
			}
		}
	}
}

unsigned char gol_count_neighbors (int x, int y, int z)
      38:	0c 94 47 00 	jmp	0x8e	; 0x8e <__bad_interrupt>
      3c:	0c 94 47 00 	jmp	0x8e	; 0x8e <__bad_interrupt>
				if ( !(ix == 0 && iy == 0 && iz == 0) )
				{
					if (GOL_WRAP == 0x01)
					{
						nx = (x+ix)%GOL_X;
						ny = (y+iy)%GOL_Y;
      40:	0c 94 47 00 	jmp	0x8e	; 0x8e <__bad_interrupt>
      44:	0c 94 47 00 	jmp	0x8e	; 0x8e <__bad_interrupt>
      48:	0c 94 47 00 	jmp	0x8e	; 0x8e <__bad_interrupt>
		for (iy = -1; iy < 2; iy++)
		{
			for (iz = -1; iz < 2; iz++)
			{
				// Your not your own neighbour, exclude 0,0,0, offset.
				if ( !(ix == 0 && iy == 0 && iz == 0) )
      4c:	0c 94 47 00 	jmp	0x8e	; 0x8e <__bad_interrupt>
      50:	0c 94 47 00 	jmp	0x8e	; 0x8e <__bad_interrupt>

00000054 <__ctors_end>:
      54:	11 24       	eor	r1, r1
      56:	1f be       	out	0x3f, r1	; 63
      58:	cf e5       	ldi	r28, 0x5F	; 95
      5a:	d8 e0       	ldi	r29, 0x08	; 8
      5c:	de bf       	out	0x3e, r29	; 62
      5e:	cd bf       	out	0x3d, r28	; 61

00000060 <__do_copy_data>:
			}
		}
	}
}

unsigned char gol_count_neighbors (int x, int y, int z)
      60:	15 e0       	ldi	r17, 0x05	; 5
      62:	a0 e6       	ldi	r26, 0x60	; 96
      64:	b0 e0       	ldi	r27, 0x00	; 0
				{
					if (GOL_WRAP == 0x01)
					{
						nx = (x+ix)%GOL_X;
						ny = (y+iy)%GOL_Y;
						nz = (z+iz)%GOL_Z;
      66:	ea ea       	ldi	r30, 0xAA	; 170
      68:	fd e1       	ldi	r31, 0x1D	; 29
      6a:	02 c0       	rjmp	.+4      	; 0x70 <__do_copy_data+0x10>
      6c:	05 90       	lpm	r0, Z+
      6e:	0d 92       	st	X+, r0
      70:	a0 3c       	cpi	r26, 0xC0	; 192
      72:	b1 07       	cpc	r27, r17
      74:	d9 f7       	brne	.-10     	; 0x6c <__do_copy_data+0xc>

00000076 <__do_clear_bss>:
      76:	26 e0       	ldi	r18, 0x06	; 6
      78:	a0 ec       	ldi	r26, 0xC0	; 192
						nx = x+ix;
						ny = y+iy;
						nz = z+iz;
					}
					
					if ( getvoxel(nx, ny, nz) )
      7a:	b5 e0       	ldi	r27, 0x05	; 5
      7c:	01 c0       	rjmp	.+2      	; 0x80 <.do_clear_bss_start>

0000007e <.do_clear_bss_loop>:
      7e:	1d 92       	st	X+, r1

00000080 <.do_clear_bss_start>:
      80:	a2 34       	cpi	r26, 0x42	; 66
      82:	b2 07       	cpc	r27, r18
      84:	e1 f7       	brne	.-8      	; 0x7e <.do_clear_bss_loop>
      86:	0e 94 d4 0d 	call	0x1ba8	; 0x1ba8 <main>
	
	for (ix = -1; ix < 2; ix++)
	{
		for (iy = -1; iy < 2; iy++)
		{
			for (iz = -1; iz < 2; iz++)
      8a:	0c 94 d3 0e 	jmp	0x1da6	; 0x1da6 <_exit>

0000008e <__bad_interrupt>:
      8e:	0c 94 00 00 	jmp	0	; 0x0 <__vectors>

00000092 <inrange>:
	
	unsigned char neigh = 0; // number of alive neighbours.
	
	for (ix = -1; ix < 2; ix++)
	{
		for (iy = -1; iy < 2; iy++)
      92:	08 97       	sbiw	r24, 0x08	; 8
      94:	68 f4       	brcc	.+26     	; 0xb0 <inrange+0x1e>
      96:	77 23       	and	r23, r23
      98:	6c f0       	brlt	.+26     	; 0xb4 <inrange+0x22>
      9a:	68 30       	cpi	r22, 0x08	; 8
      9c:	71 05       	cpc	r23, r1
      9e:	64 f4       	brge	.+24     	; 0xb8 <inrange+0x26>
			}
		}
	}
}

unsigned char gol_count_neighbors (int x, int y, int z)
      a0:	55 23       	and	r21, r21
      a2:	64 f0       	brlt	.+24     	; 0xbc <inrange+0x2a>
      a4:	81 e0       	ldi	r24, 0x01	; 1
      a6:	48 30       	cpi	r20, 0x08	; 8
				if ( !(ix == 0 && iy == 0 && iz == 0) )
				{
					if (GOL_WRAP == 0x01)
					{
						nx = (x+ix)%GOL_X;
						ny = (y+iy)%GOL_Y;
      a8:	51 05       	cpc	r21, r1
      aa:	4c f0       	brlt	.+18     	; 0xbe <inrange+0x2c>
      ac:	80 e0       	ldi	r24, 0x00	; 0
      ae:	08 95       	ret
      b0:	80 e0       	ldi	r24, 0x00	; 0
      b2:	08 95       	ret
      b4:	80 e0       	ldi	r24, 0x00	; 0
      b6:	08 95       	ret
      b8:	80 e0       	ldi	r24, 0x00	; 0
      ba:	08 95       	ret
      bc:	80 e0       	ldi	r24, 0x00	; 0
      be:	08 95       	ret

000000c0 <clrvoxel>:
	int ix, iy, iz; // offset 1 in each direction in each dimension
	int nx, ny, nz; // neighbours address.
	
	unsigned char neigh = 0; // number of alive neighbours.
	
	for (ix = -1; ix < 2; ix++)
      c0:	ff 92       	push	r15
      c2:	0f 93       	push	r16
      c4:	1f 93       	push	r17
      c6:	cf 93       	push	r28
      c8:	df 93       	push	r29
			}
		}
	}
}

unsigned char gol_count_neighbors (int x, int y, int z)
      ca:	f8 2e       	mov	r15, r24
      cc:	eb 01       	movw	r28, r22
      ce:	8a 01       	movw	r16, r20
      d0:	0e 94 49 00 	call	0x92	; 0x92 <inrange>
				// Your not your own neighbour, exclude 0,0,0, offset.
				if ( !(ix == 0 && iy == 0 && iz == 0) )
				{
					if (GOL_WRAP == 0x01)
					{
						nx = (x+ix)%GOL_X;
      d4:	88 23       	and	r24, r24
      d6:	b1 f0       	breq	.+44     	; 0x104 <clrvoxel+0x44>
      d8:	00 0f       	add	r16, r16
      da:	11 1f       	adc	r17, r17
      dc:	00 0f       	add	r16, r16
      de:	11 1f       	adc	r17, r17
      e0:	00 0f       	add	r16, r16
      e2:	11 1f       	adc	r17, r17
      e4:	c0 0f       	add	r28, r16
      e6:	d1 1f       	adc	r29, r17
      e8:	c0 50       	subi	r28, 0x00	; 0
      ea:	da 4f       	sbci	r29, 0xFA	; 250
      ec:	48 81       	ld	r20, Y
      ee:	21 e0       	ldi	r18, 0x01	; 1
				}
			}
		}
	}
	return neigh;
}
      f0:	30 e0       	ldi	r19, 0x00	; 0
      f2:	c9 01       	movw	r24, r18
      f4:	02 c0       	rjmp	.+4      	; 0xfa <clrvoxel+0x3a>
      f6:	88 0f       	add	r24, r24
      f8:	99 1f       	adc	r25, r25
      fa:	fa 94       	dec	r15
      fc:	e2 f7       	brpl	.-8      	; 0xf6 <clrvoxel+0x36>
      fe:	80 95       	com	r24
     100:	84 23       	and	r24, r20
     102:	88 83       	st	Y, r24
     104:	df 91       	pop	r29
     106:	cf 91       	pop	r28
     108:	1f 91       	pop	r17
     10a:	0f 91       	pop	r16
     10c:	ff 90       	pop	r15
     10e:	08 95       	ret

00000110 <setvoxel>:
     110:	ff 92       	push	r15
     112:	0f 93       	push	r16
     114:	1f 93       	push	r17
     116:	cf 93       	push	r28
     118:	df 93       	push	r29
     11a:	f8 2e       	mov	r15, r24
     11c:	eb 01       	movw	r28, r22
		lasty = y1;
	}

	if (z1>z2)
	{
		xz = (float)(z1-z2)/(float)(x2-x1);
     11e:	8a 01       	movw	r16, r20
     120:	0e 94 49 00 	call	0x92	; 0x92 <inrange>
     124:	88 23       	and	r24, r24
     126:	a9 f0       	breq	.+42     	; 0x152 <setvoxel+0x42>
		lastz = z2;
	} else
	{
		xz = (float)(z2-z1)/(float)(x2-x1);
     128:	00 0f       	add	r16, r16
     12a:	11 1f       	adc	r17, r17
     12c:	00 0f       	add	r16, r16
     12e:	11 1f       	adc	r17, r17
     130:	00 0f       	add	r16, r16
     132:	11 1f       	adc	r17, r17
     134:	c0 0f       	add	r28, r16
     136:	d1 1f       	adc	r29, r17
     138:	c0 50       	subi	r28, 0x00	; 0
     13a:	da 4f       	sbci	r29, 0xFA	; 250
     13c:	48 81       	ld	r20, Y
     13e:	21 e0       	ldi	r18, 0x01	; 1
     140:	30 e0       	ldi	r19, 0x00	; 0
     142:	c9 01       	movw	r24, r18
     144:	02 c0       	rjmp	.+4      	; 0x14a <setvoxel+0x3a>
     146:	88 0f       	add	r24, r24
     148:	99 1f       	adc	r25, r25
     14a:	fa 94       	dec	r15
     14c:	e2 f7       	brpl	.-8      	; 0x146 <setvoxel+0x36>
     14e:	84 2b       	or	r24, r20
     150:	88 83       	st	Y, r24
     152:	df 91       	pop	r29
     154:	cf 91       	pop	r28
     156:	1f 91       	pop	r17
     158:	0f 91       	pop	r16
     15a:	ff 90       	pop	r15
     15c:	08 95       	ret

0000015e <getvoxel>:
     15e:	ff 92       	push	r15
     160:	0f 93       	push	r16
     162:	1f 93       	push	r17
     164:	cf 93       	push	r28
	}



	// For each step of x, y increments by:
	for (x = x1; x<=x2;x++)
     166:	df 93       	push	r29
     168:	f8 2e       	mov	r15, r24
     16a:	eb 01       	movw	r28, r22
     16c:	8a 01       	movw	r16, r20
     16e:	0e 94 49 00 	call	0x92	; 0x92 <inrange>
     172:	88 23       	and	r24, r24
     174:	a1 f0       	breq	.+40     	; 0x19e <getvoxel+0x40>
	{
		y = (xy*(x-x1))+y1;
		z = (xz*(x-x1))+z1;
     176:	00 0f       	add	r16, r16
     178:	11 1f       	adc	r17, r17
     17a:	00 0f       	add	r16, r16
     17c:	11 1f       	adc	r17, r17


	// For each step of x, y increments by:
	for (x = x1; x<=x2;x++)
	{
		y = (xy*(x-x1))+y1;
     17e:	00 0f       	add	r16, r16
     180:	11 1f       	adc	r17, r17
     182:	c0 0f       	add	r28, r16
     184:	d1 1f       	adc	r29, r17
     186:	c0 50       	subi	r28, 0x00	; 0
     188:	da 4f       	sbci	r29, 0xFA	; 250
     18a:	28 81       	ld	r18, Y
     18c:	30 e0       	ldi	r19, 0x00	; 0
     18e:	c9 01       	movw	r24, r18
     190:	02 c0       	rjmp	.+4      	; 0x196 <getvoxel+0x38>
     192:	95 95       	asr	r25
     194:	87 95       	ror	r24
     196:	fa 94       	dec	r15
     198:	e2 f7       	brpl	.-8      	; 0x192 <getvoxel+0x34>
     19a:	81 70       	andi	r24, 0x01	; 1
     19c:	01 c0       	rjmp	.+2      	; 0x1a0 <getvoxel+0x42>
     19e:	80 e0       	ldi	r24, 0x00	; 0
     1a0:	df 91       	pop	r29
     1a2:	cf 91       	pop	r28
     1a4:	1f 91       	pop	r17
     1a6:	0f 91       	pop	r16
     1a8:	ff 90       	pop	r15
		z = (xz*(x-x1))+z1;
     1aa:	08 95       	ret

000001ac <altervoxel>:
     1ac:	21 30       	cpi	r18, 0x01	; 1
     1ae:	31 05       	cpc	r19, r1
     1b0:	19 f4       	brne	.+6      	; 0x1b8 <altervoxel+0xc>
     1b2:	0e 94 88 00 	call	0x110	; 0x110 <setvoxel>
     1b6:	08 95       	ret
     1b8:	0e 94 60 00 	call	0xc0	; 0xc0 <clrvoxel>
     1bc:	08 95       	ret

000001be <argorder>:
     1be:	68 17       	cp	r22, r24
     1c0:	79 07       	cpc	r23, r25
     1c2:	2c f4       	brge	.+10     	; 0x1ce <argorder+0x10>
     1c4:	f8 2f       	mov	r31, r24
     1c6:	e9 2f       	mov	r30, r25
     1c8:	cb 01       	movw	r24, r22
     1ca:	6f 2f       	mov	r22, r31
     1cc:	7e 2f       	mov	r23, r30
     1ce:	fa 01       	movw	r30, r20
     1d0:	91 83       	std	Z+1, r25	; 0x01
     1d2:	80 83       	st	Z, r24
     1d4:	f9 01       	movw	r30, r18
     1d6:	71 83       	std	Z+1, r23	; 0x01
     1d8:	60 83       	st	Z, r22
     1da:	08 95       	ret

000001dc <setplane_z>:
     1dc:	88 30       	cpi	r24, 0x08	; 8
     1de:	91 05       	cpc	r25, r1


	// For each step of x, y increments by:
	for (x = x1; x<=x2;x++)
	{
		y = (xy*(x-x1))+y1;
     1e0:	90 f4       	brcc	.+36     	; 0x206 <setplane_z+0x2a>
     1e2:	fc 01       	movw	r30, r24
     1e4:	ee 0f       	add	r30, r30
     1e6:	ff 1f       	adc	r31, r31
     1e8:	ee 0f       	add	r30, r30
     1ea:	ff 1f       	adc	r31, r31
     1ec:	ee 0f       	add	r30, r30
     1ee:	ff 1f       	adc	r31, r31
     1f0:	e0 50       	subi	r30, 0x00	; 0
     1f2:	fa 4f       	sbci	r31, 0xFA	; 250
     1f4:	8f ef       	ldi	r24, 0xFF	; 255
     1f6:	80 83       	st	Z, r24
     1f8:	81 83       	std	Z+1, r24	; 0x01
     1fa:	82 83       	std	Z+2, r24	; 0x02
     1fc:	83 83       	std	Z+3, r24	; 0x03
     1fe:	84 83       	std	Z+4, r24	; 0x04
     200:	85 83       	std	Z+5, r24	; 0x05
     202:	86 83       	std	Z+6, r24	; 0x06
     204:	87 83       	std	Z+7, r24	; 0x07
     206:	08 95       	ret

00000208 <setplane_x>:
     208:	88 30       	cpi	r24, 0x08	; 8
     20a:	91 05       	cpc	r25, r1
     20c:	30 f5       	brcc	.+76     	; 0x25a <setplane_x+0x52>
     20e:	21 e0       	ldi	r18, 0x01	; 1
     210:	30 e0       	ldi	r19, 0x00	; 0
     212:	01 c0       	rjmp	.+2      	; 0x216 <setplane_x+0xe>
     214:	22 0f       	add	r18, r18
     216:	8a 95       	dec	r24
		z = (xz*(x-x1))+z1;
		setvoxel(x,y,z);
     218:	ea f7       	brpl	.-6      	; 0x214 <setplane_x+0xc>
     21a:	b2 2f       	mov	r27, r18
     21c:	40 e0       	ldi	r20, 0x00	; 0
     21e:	50 e0       	ldi	r21, 0x00	; 0
     220:	60 e0       	ldi	r22, 0x00	; 0
     222:	70 e0       	ldi	r23, 0x00	; 0
	}



	// For each step of x, y increments by:
	for (x = x1; x<=x2;x++)
     224:	11 c0       	rjmp	.+34     	; 0x248 <setplane_x+0x40>
     226:	f9 01       	movw	r30, r18
     228:	e8 0f       	add	r30, r24
     22a:	f9 1f       	adc	r31, r25
     22c:	e0 50       	subi	r30, 0x00	; 0
     22e:	fa 4f       	sbci	r31, 0xFA	; 250
     230:	a0 81       	ld	r26, Z
     232:	ab 2b       	or	r26, r27
     234:	a0 83       	st	Z, r26
     236:	01 96       	adiw	r24, 0x01	; 1
     238:	88 30       	cpi	r24, 0x08	; 8
		y = (xy*(x-x1))+y1;
		z = (xz*(x-x1))+z1;
		setvoxel(x,y,z);
	}
	
}
     23a:	91 05       	cpc	r25, r1
     23c:	a1 f7       	brne	.-24     	; 0x226 <setplane_x+0x1e>
     23e:	4f 5f       	subi	r20, 0xFF	; 255
     240:	5f 4f       	sbci	r21, 0xFF	; 255
     242:	48 30       	cpi	r20, 0x08	; 8
     244:	51 05       	cpc	r21, r1
     246:	49 f0       	breq	.+18     	; 0x25a <setplane_x+0x52>
     248:	cb 01       	movw	r24, r22
     24a:	9a 01       	movw	r18, r20
     24c:	22 0f       	add	r18, r18
     24e:	33 1f       	adc	r19, r19
     250:	22 0f       	add	r18, r18
     252:	33 1f       	adc	r19, r19
     254:	22 0f       	add	r18, r18
     256:	33 1f       	adc	r19, r19
     258:	e6 cf       	rjmp	.-52     	; 0x226 <setplane_x+0x1e>
     25a:	08 95       	ret

0000025c <setplane_y>:
     25c:	88 30       	cpi	r24, 0x08	; 8
     25e:	91 05       	cpc	r25, r1
     260:	60 f4       	brcc	.+24     	; 0x27a <setplane_y+0x1e>
     262:	fc 01       	movw	r30, r24
     264:	e0 50       	subi	r30, 0x00	; 0
     266:	fa 4f       	sbci	r31, 0xFA	; 250
     268:	8f ef       	ldi	r24, 0xFF	; 255
     26a:	80 83       	st	Z, r24
{
	int z;
	if (y>=0 && y<CUBE_SIZE)
	{
		for (z=0;z<CUBE_SIZE;z++)
		cube[z][y] = 0xff;
     26c:	80 87       	std	Z+8, r24	; 0x08
     26e:	80 8b       	std	Z+16, r24	; 0x10
     270:	80 8f       	std	Z+24, r24	; 0x18
     272:	80 a3       	std	Z+32, r24	; 0x20
     274:	80 a7       	std	Z+40, r24	; 0x28
     276:	80 ab       	std	Z+48, r24	; 0x30
     278:	80 af       	std	Z+56, r24	; 0x38
     27a:	08 95       	ret

0000027c <setplane>:
	}
}

void setplane (char axis, unsigned char i)
{
	switch (axis)
     27c:	89 37       	cpi	r24, 0x79	; 121
     27e:	49 f0       	breq	.+18     	; 0x292 <setplane+0x16>
     280:	8a 37       	cpi	r24, 0x7A	; 122
     282:	61 f0       	breq	.+24     	; 0x29c <setplane+0x20>
     284:	88 37       	cpi	r24, 0x78	; 120
     286:	71 f4       	brne	.+28     	; 0x2a4 <setplane+0x28>
	{
		case AXIS_X:
		setplane_x(i);
     288:	86 2f       	mov	r24, r22
     28a:	90 e0       	ldi	r25, 0x00	; 0
     28c:	0e 94 04 01 	call	0x208	; 0x208 <setplane_x>
		break;
     290:	08 95       	ret
		
		case AXIS_Y:
		setplane_y(i);
     292:	86 2f       	mov	r24, r22
     294:	90 e0       	ldi	r25, 0x00	; 0
     296:	0e 94 2e 01 	call	0x25c	; 0x25c <setplane_y>
		break;
     29a:	08 95       	ret

		case AXIS_Z:
		setplane_z(i);
     29c:	86 2f       	mov	r24, r22
     29e:	90 e0       	ldi	r25, 0x00	; 0
     2a0:	0e 94 ee 00 	call	0x1dc	; 0x1dc <setplane_z>
     2a4:	08 95       	ret

000002a6 <fill>:
//В основном используется для полной очистки(0x00) или полного заполнения(0xff).  
void fill (unsigned char pattern)
{
	int z;
	int y;
	for (z=0;z<CUBE_SIZE;z++)
     2a6:	20 e0       	ldi	r18, 0x00	; 0
     2a8:	30 e0       	ldi	r19, 0x00	; 0
	{
		for (y=0;y<CUBE_SIZE;y++)
		{
			cube[z][y] = pattern;
     2aa:	f9 01       	movw	r30, r18
     2ac:	ee 0f       	add	r30, r30
     2ae:	ff 1f       	adc	r31, r31
     2b0:	ee 0f       	add	r30, r30
     2b2:	ff 1f       	adc	r31, r31
     2b4:	ee 0f       	add	r30, r30
     2b6:	ff 1f       	adc	r31, r31
     2b8:	e0 50       	subi	r30, 0x00	; 0
     2ba:	fa 4f       	sbci	r31, 0xFA	; 250
     2bc:	80 83       	st	Z, r24
     2be:	81 83       	std	Z+1, r24	; 0x01
     2c0:	82 83       	std	Z+2, r24	; 0x02
     2c2:	83 83       	std	Z+3, r24	; 0x03
     2c4:	84 83       	std	Z+4, r24	; 0x04
     2c6:	85 83       	std	Z+5, r24	; 0x05
     2c8:	86 83       	std	Z+6, r24	; 0x06
     2ca:	87 83       	std	Z+7, r24	; 0x07
//В основном используется для полной очистки(0x00) или полного заполнения(0xff).  
void fill (unsigned char pattern)
{
	int z;
	int y;
	for (z=0;z<CUBE_SIZE;z++)
     2cc:	2f 5f       	subi	r18, 0xFF	; 255
     2ce:	3f 4f       	sbci	r19, 0xFF	; 255
     2d0:	28 30       	cpi	r18, 0x08	; 8
     2d2:	31 05       	cpc	r19, r1
     2d4:	51 f7       	brne	.-44     	; 0x2aa <fill+0x4>
		for (y=0;y<CUBE_SIZE;y++)
		{
			cube[z][y] = pattern;
		}
	}
}
     2d6:	08 95       	ret

000002d8 <byteline>:

// Returns a byte with a row of 1's drawn in it.
// byteline(2,5) gives 0b00111100
char byteline (int start, int end)
{
	return ((0xff<<start) & ~(0xff<<(end+1)));
     2d8:	6f 5f       	subi	r22, 0xFF	; 255
     2da:	7f 4f       	sbci	r23, 0xFF	; 255
     2dc:	2f ef       	ldi	r18, 0xFF	; 255
     2de:	30 e0       	ldi	r19, 0x00	; 0
     2e0:	a9 01       	movw	r20, r18
     2e2:	02 c0       	rjmp	.+4      	; 0x2e8 <byteline+0x10>
     2e4:	44 0f       	add	r20, r20
     2e6:	55 1f       	adc	r21, r21
     2e8:	6a 95       	dec	r22
     2ea:	e2 f7       	brpl	.-8      	; 0x2e4 <byteline+0xc>
     2ec:	ba 01       	movw	r22, r20
     2ee:	60 95       	com	r22
     2f0:	a9 01       	movw	r20, r18
     2f2:	02 c0       	rjmp	.+4      	; 0x2f8 <byteline+0x20>
     2f4:	44 0f       	add	r20, r20
     2f6:	55 1f       	adc	r21, r21
     2f8:	8a 95       	dec	r24
     2fa:	e2 f7       	brpl	.-8      	; 0x2f4 <byteline+0x1c>
     2fc:	ca 01       	movw	r24, r20
}
     2fe:	86 23       	and	r24, r22
     300:	08 95       	ret

00000302 <box_wireframe>:

// Draw a wireframe box. This only draws the corners and edges,
// no walls.
//рисует карказ коробки (стены пустые)
void box_wireframe(int x1, int y1, int z1, int x2, int y2, int z2)
{
     302:	ef 92       	push	r14
     304:	ff 92       	push	r15
     306:	0f 93       	push	r16
     308:	1f 93       	push	r17
     30a:	cf 93       	push	r28
     30c:	df 93       	push	r29
     30e:	cd b7       	in	r28, 0x3d	; 61
     310:	de b7       	in	r29, 0x3e	; 62
     312:	2c 97       	sbiw	r28, 0x0c	; 12
     314:	0f b6       	in	r0, 0x3f	; 63
     316:	f8 94       	cli
     318:	de bf       	out	0x3e, r29	; 62
     31a:	0f be       	out	0x3f, r0	; 63
     31c:	cd bf       	out	0x3d, r28	; 61
     31e:	9a 83       	std	Y+2, r25	; 0x02
     320:	89 83       	std	Y+1, r24	; 0x01
     322:	7c 83       	std	Y+4, r23	; 0x04
     324:	6b 83       	std	Y+3, r22	; 0x03
     326:	5e 83       	std	Y+6, r21	; 0x06
     328:	4d 83       	std	Y+5, r20	; 0x05
     32a:	62 2f       	mov	r22, r18
     32c:	73 2f       	mov	r23, r19
     32e:	38 87       	std	Y+8, r19	; 0x08
     330:	2f 83       	std	Y+7, r18	; 0x07
     332:	1a 87       	std	Y+10, r17	; 0x0a
     334:	09 87       	std	Y+9, r16	; 0x09
     336:	fc 86       	std	Y+12, r15	; 0x0c
     338:	eb 86       	std	Y+11, r14	; 0x0b
	int iy;
	int iz;

	argorder(x1, x2, &x1, &x2);
     33a:	9e 01       	movw	r18, r28
     33c:	29 5f       	subi	r18, 0xF9	; 249
     33e:	3f 4f       	sbci	r19, 0xFF	; 255
     340:	ae 01       	movw	r20, r28
     342:	4f 5f       	subi	r20, 0xFF	; 255
     344:	5f 4f       	sbci	r21, 0xFF	; 255
     346:	0e 94 df 00 	call	0x1be	; 0x1be <argorder>
	argorder(y1, y2, &y1, &y2);
     34a:	69 85       	ldd	r22, Y+9	; 0x09
     34c:	7a 85       	ldd	r23, Y+10	; 0x0a
     34e:	9e 01       	movw	r18, r28
     350:	27 5f       	subi	r18, 0xF7	; 247
     352:	3f 4f       	sbci	r19, 0xFF	; 255
     354:	ae 01       	movw	r20, r28
     356:	4d 5f       	subi	r20, 0xFD	; 253
     358:	5f 4f       	sbci	r21, 0xFF	; 255
     35a:	8b 81       	ldd	r24, Y+3	; 0x03
     35c:	9c 81       	ldd	r25, Y+4	; 0x04
     35e:	0e 94 df 00 	call	0x1be	; 0x1be <argorder>
	argorder(z1, z2, &z1, &z2);
     362:	6b 85       	ldd	r22, Y+11	; 0x0b
     364:	7c 85       	ldd	r23, Y+12	; 0x0c
     366:	9e 01       	movw	r18, r28
     368:	25 5f       	subi	r18, 0xF5	; 245
     36a:	3f 4f       	sbci	r19, 0xFF	; 255
     36c:	ae 01       	movw	r20, r28
     36e:	4b 5f       	subi	r20, 0xFB	; 251
     370:	5f 4f       	sbci	r21, 0xFF	; 255
     372:	8d 81       	ldd	r24, Y+5	; 0x05
     374:	9e 81       	ldd	r25, Y+6	; 0x06
     376:	0e 94 df 00 	call	0x1be	; 0x1be <argorder>

	// Lines along X axis
	cube[z1][y1] = byteline(x1,x2);
     37a:	ed 80       	ldd	r14, Y+5	; 0x05
     37c:	fe 80       	ldd	r15, Y+6	; 0x06
     37e:	0b 81       	ldd	r16, Y+3	; 0x03
     380:	1c 81       	ldd	r17, Y+4	; 0x04
     382:	6f 81       	ldd	r22, Y+7	; 0x07
     384:	78 85       	ldd	r23, Y+8	; 0x08
     386:	89 81       	ldd	r24, Y+1	; 0x01
     388:	9a 81       	ldd	r25, Y+2	; 0x02
     38a:	0e 94 6c 01 	call	0x2d8	; 0x2d8 <byteline>
     38e:	a7 01       	movw	r20, r14
     390:	44 0f       	add	r20, r20
     392:	55 1f       	adc	r21, r21
     394:	44 0f       	add	r20, r20
     396:	55 1f       	adc	r21, r21
     398:	44 0f       	add	r20, r20
     39a:	55 1f       	adc	r21, r21
     39c:	fa 01       	movw	r30, r20
     39e:	e0 0f       	add	r30, r16
     3a0:	f1 1f       	adc	r31, r17
     3a2:	e0 50       	subi	r30, 0x00	; 0
     3a4:	fa 4f       	sbci	r31, 0xFA	; 250
     3a6:	80 83       	st	Z, r24
	cube[z1][y2] = byteline(x1,x2);
     3a8:	29 85       	ldd	r18, Y+9	; 0x09
     3aa:	3a 85       	ldd	r19, Y+10	; 0x0a
     3ac:	42 0f       	add	r20, r18
     3ae:	53 1f       	adc	r21, r19
     3b0:	fa 01       	movw	r30, r20
     3b2:	e0 50       	subi	r30, 0x00	; 0
     3b4:	fa 4f       	sbci	r31, 0xFA	; 250
     3b6:	80 83       	st	Z, r24
	cube[z2][y1] = byteline(x1,x2);
     3b8:	4b 85       	ldd	r20, Y+11	; 0x0b
     3ba:	5c 85       	ldd	r21, Y+12	; 0x0c
     3bc:	44 0f       	add	r20, r20
     3be:	55 1f       	adc	r21, r21
     3c0:	44 0f       	add	r20, r20
     3c2:	55 1f       	adc	r21, r21
     3c4:	44 0f       	add	r20, r20
     3c6:	55 1f       	adc	r21, r21
     3c8:	fa 01       	movw	r30, r20
     3ca:	e0 0f       	add	r30, r16
     3cc:	f1 1f       	adc	r31, r17
     3ce:	e0 50       	subi	r30, 0x00	; 0
     3d0:	fa 4f       	sbci	r31, 0xFA	; 250
     3d2:	80 83       	st	Z, r24
	cube[z2][y2] = byteline(x1,x2);
     3d4:	42 0f       	add	r20, r18
     3d6:	53 1f       	adc	r21, r19
     3d8:	fa 01       	movw	r30, r20
     3da:	e0 50       	subi	r30, 0x00	; 0
     3dc:	fa 4f       	sbci	r31, 0xFA	; 250
     3de:	80 83       	st	Z, r24

	// Lines along Y axis
	for (iy=y1;iy<=y2;iy++)
     3e0:	20 17       	cp	r18, r16
     3e2:	31 07       	cpc	r19, r17
     3e4:	1c f1       	brlt	.+70     	; 0x42c <box_wireframe+0x12a>
	{
		setvoxel(x1,iy,z1);
     3e6:	4d 81       	ldd	r20, Y+5	; 0x05
     3e8:	5e 81       	ldd	r21, Y+6	; 0x06
     3ea:	b8 01       	movw	r22, r16
     3ec:	89 81       	ldd	r24, Y+1	; 0x01
     3ee:	9a 81       	ldd	r25, Y+2	; 0x02
     3f0:	0e 94 88 00 	call	0x110	; 0x110 <setvoxel>
		setvoxel(x1,iy,z2);
     3f4:	4b 85       	ldd	r20, Y+11	; 0x0b
     3f6:	5c 85       	ldd	r21, Y+12	; 0x0c
     3f8:	b8 01       	movw	r22, r16
     3fa:	89 81       	ldd	r24, Y+1	; 0x01
     3fc:	9a 81       	ldd	r25, Y+2	; 0x02
     3fe:	0e 94 88 00 	call	0x110	; 0x110 <setvoxel>
		setvoxel(x2,iy,z1);
     402:	4d 81       	ldd	r20, Y+5	; 0x05
     404:	5e 81       	ldd	r21, Y+6	; 0x06
     406:	b8 01       	movw	r22, r16
     408:	8f 81       	ldd	r24, Y+7	; 0x07
     40a:	98 85       	ldd	r25, Y+8	; 0x08
     40c:	0e 94 88 00 	call	0x110	; 0x110 <setvoxel>
		setvoxel(x2,iy,z2);
     410:	4b 85       	ldd	r20, Y+11	; 0x0b
     412:	5c 85       	ldd	r21, Y+12	; 0x0c
     414:	b8 01       	movw	r22, r16
     416:	8f 81       	ldd	r24, Y+7	; 0x07
     418:	98 85       	ldd	r25, Y+8	; 0x08
     41a:	0e 94 88 00 	call	0x110	; 0x110 <setvoxel>
	cube[z1][y2] = byteline(x1,x2);
	cube[z2][y1] = byteline(x1,x2);
	cube[z2][y2] = byteline(x1,x2);

	// Lines along Y axis
	for (iy=y1;iy<=y2;iy++)
     41e:	0f 5f       	subi	r16, 0xFF	; 255
     420:	1f 4f       	sbci	r17, 0xFF	; 255
     422:	89 85       	ldd	r24, Y+9	; 0x09
     424:	9a 85       	ldd	r25, Y+10	; 0x0a
     426:	80 17       	cp	r24, r16
     428:	91 07       	cpc	r25, r17
     42a:	ec f6       	brge	.-70     	; 0x3e6 <box_wireframe+0xe4>
		setvoxel(x2,iy,z1);
		setvoxel(x2,iy,z2);
	}

	// Lines along Z axis
	for (iz=z1;iz<=z2;iz++)
     42c:	0d 81       	ldd	r16, Y+5	; 0x05
     42e:	1e 81       	ldd	r17, Y+6	; 0x06
     430:	8b 85       	ldd	r24, Y+11	; 0x0b
     432:	9c 85       	ldd	r25, Y+12	; 0x0c
     434:	80 17       	cp	r24, r16
     436:	91 07       	cpc	r25, r17
     438:	1c f1       	brlt	.+70     	; 0x480 <box_wireframe+0x17e>
	{
		setvoxel(x1,y1,iz);
     43a:	6b 81       	ldd	r22, Y+3	; 0x03
     43c:	7c 81       	ldd	r23, Y+4	; 0x04
     43e:	a8 01       	movw	r20, r16
     440:	89 81       	ldd	r24, Y+1	; 0x01
     442:	9a 81       	ldd	r25, Y+2	; 0x02
     444:	0e 94 88 00 	call	0x110	; 0x110 <setvoxel>
		setvoxel(x1,y2,iz);
     448:	69 85       	ldd	r22, Y+9	; 0x09
     44a:	7a 85       	ldd	r23, Y+10	; 0x0a
     44c:	a8 01       	movw	r20, r16
     44e:	89 81       	ldd	r24, Y+1	; 0x01
     450:	9a 81       	ldd	r25, Y+2	; 0x02
     452:	0e 94 88 00 	call	0x110	; 0x110 <setvoxel>
		setvoxel(x2,y1,iz);
     456:	6b 81       	ldd	r22, Y+3	; 0x03
     458:	7c 81       	ldd	r23, Y+4	; 0x04
     45a:	a8 01       	movw	r20, r16
     45c:	8f 81       	ldd	r24, Y+7	; 0x07
     45e:	98 85       	ldd	r25, Y+8	; 0x08
     460:	0e 94 88 00 	call	0x110	; 0x110 <setvoxel>
		setvoxel(x2,y2,iz);
     464:	69 85       	ldd	r22, Y+9	; 0x09
     466:	7a 85       	ldd	r23, Y+10	; 0x0a
     468:	a8 01       	movw	r20, r16
     46a:	8f 81       	ldd	r24, Y+7	; 0x07
     46c:	98 85       	ldd	r25, Y+8	; 0x08
     46e:	0e 94 88 00 	call	0x110	; 0x110 <setvoxel>
		setvoxel(x2,iy,z1);
		setvoxel(x2,iy,z2);
	}

	// Lines along Z axis
	for (iz=z1;iz<=z2;iz++)
     472:	0f 5f       	subi	r16, 0xFF	; 255
     474:	1f 4f       	sbci	r17, 0xFF	; 255
     476:	8b 85       	ldd	r24, Y+11	; 0x0b
     478:	9c 85       	ldd	r25, Y+12	; 0x0c
     47a:	80 17       	cp	r24, r16
     47c:	91 07       	cpc	r25, r17
     47e:	ec f6       	brge	.-70     	; 0x43a <box_wireframe+0x138>
		setvoxel(x1,y2,iz);
		setvoxel(x2,y1,iz);
		setvoxel(x2,y2,iz);
	}

}
     480:	2c 96       	adiw	r28, 0x0c	; 12
     482:	0f b6       	in	r0, 0x3f	; 63
     484:	f8 94       	cli
     486:	de bf       	out	0x3e, r29	; 62
     488:	0f be       	out	0x3f, r0	; 63
     48a:	cd bf       	out	0x3d, r28	; 61
     48c:	df 91       	pop	r29
     48e:	cf 91       	pop	r28
     490:	1f 91       	pop	r17
     492:	0f 91       	pop	r16
     494:	ff 90       	pop	r15
     496:	ef 90       	pop	r14
     498:	08 95       	ret

0000049a <flipbyte>:

	flop = (flop & 0b11111110) | (0b00000001 & (byte >> 7));
	flop = (flop & 0b11111101) | (0b00000010 & (byte >> 5));
	flop = (flop & 0b11111011) | (0b00000100 & (byte >> 3));
	flop = (flop & 0b11110111) | (0b00001000 & (byte >> 1));
	flop = (flop & 0b11101111) | (0b00010000 & (byte << 1));
     49a:	28 2f       	mov	r18, r24
     49c:	30 e0       	ldi	r19, 0x00	; 0
char flipbyte (char byte)
{
	char flop = 0x00;

	flop = (flop & 0b11111110) | (0b00000001 & (byte >> 7));
	flop = (flop & 0b11111101) | (0b00000010 & (byte >> 5));
     49e:	e8 2f       	mov	r30, r24
     4a0:	e2 95       	swap	r30
     4a2:	e6 95       	lsr	r30
     4a4:	e7 70       	andi	r30, 0x07	; 7
     4a6:	e2 70       	andi	r30, 0x02	; 2
     4a8:	98 2f       	mov	r25, r24
     4aa:	99 1f       	adc	r25, r25
     4ac:	99 27       	eor	r25, r25
     4ae:	99 1f       	adc	r25, r25
	flop = (flop & 0b11111011) | (0b00000100 & (byte >> 3));
     4b0:	e9 2b       	or	r30, r25
     4b2:	98 2f       	mov	r25, r24
     4b4:	96 95       	lsr	r25
     4b6:	96 95       	lsr	r25
     4b8:	96 95       	lsr	r25
     4ba:	94 70       	andi	r25, 0x04	; 4
	flop = (flop & 0b11110111) | (0b00001000 & (byte >> 1));
     4bc:	e9 2b       	or	r30, r25
     4be:	86 95       	lsr	r24
     4c0:	88 70       	andi	r24, 0x08	; 8
	flop = (flop & 0b11101111) | (0b00010000 & (byte << 1));
     4c2:	8e 2b       	or	r24, r30
     4c4:	f9 01       	movw	r30, r18
     4c6:	ee 0f       	add	r30, r30
     4c8:	ff 1f       	adc	r31, r31
     4ca:	e0 71       	andi	r30, 0x10	; 16
	flop = (flop & 0b11011111) | (0b00100000 & (byte << 3));
     4cc:	e8 2b       	or	r30, r24
     4ce:	b9 01       	movw	r22, r18
     4d0:	66 0f       	add	r22, r22
     4d2:	77 1f       	adc	r23, r23
     4d4:	66 0f       	add	r22, r22
     4d6:	77 1f       	adc	r23, r23
     4d8:	66 0f       	add	r22, r22
     4da:	77 1f       	adc	r23, r23
     4dc:	60 72       	andi	r22, 0x20	; 32
	flop = (flop & 0b10111111) | (0b01000000 & (byte << 5));
     4de:	6e 2b       	or	r22, r30
     4e0:	a9 01       	movw	r20, r18
     4e2:	44 0f       	add	r20, r20
     4e4:	55 1f       	adc	r21, r21
     4e6:	42 95       	swap	r20
     4e8:	52 95       	swap	r21
     4ea:	50 7f       	andi	r21, 0xF0	; 240
     4ec:	54 27       	eor	r21, r20
     4ee:	40 7f       	andi	r20, 0xF0	; 240
     4f0:	54 27       	eor	r21, r20
     4f2:	40 74       	andi	r20, 0x40	; 64
	flop = (flop & 0b01111111) | (0b10000000 & (byte << 7));
     4f4:	84 2f       	mov	r24, r20
     4f6:	86 2b       	or	r24, r22
     4f8:	36 95       	lsr	r19
     4fa:	32 2f       	mov	r19, r18
     4fc:	22 27       	eor	r18, r18
     4fe:	37 95       	ror	r19
     500:	27 95       	ror	r18
	return flop;
}
     502:	82 2b       	or	r24, r18
     504:	08 95       	ret

00000506 <delay_ms>:
// calibration when we figured it might be a good idea
// to calibrate it.
void delay_ms(uint16_t x)
{
	uint8_t y, z;
	for ( ; x > 0 ; x--){
     506:	00 97       	sbiw	r24, 0x00	; 0
     508:	59 f4       	brne	.+22     	; 0x520 <delay_ms+0x1a>
     50a:	08 95       	ret
	...
		for ( y = 0 ; y < 90 ; y++){
			for ( z = 0 ; z < 6 ; z++){
				asm volatile ("nop");
     518:	21 50       	subi	r18, 0x01	; 1
// to calibrate it.
void delay_ms(uint16_t x)
{
	uint8_t y, z;
	for ( ; x > 0 ; x--){
		for ( y = 0 ; y < 90 ; y++){
     51a:	c1 f7       	brne	.-16     	; 0x50c <delay_ms+0x6>
// calibration when we figured it might be a good idea
// to calibrate it.
void delay_ms(uint16_t x)
{
	uint8_t y, z;
	for ( ; x > 0 ; x--){
     51c:	01 97       	sbiw	r24, 0x01	; 1
     51e:	11 f0       	breq	.+4      	; 0x524 <delay_ms+0x1e>
// This is not calibrated to milliseconds,
// but we had allready made to many effects using this
// calibration when we figured it might be a good idea
// to calibrate it.
void delay_ms(uint16_t x)
{
     520:	2a e5       	ldi	r18, 0x5A	; 90
     522:	f4 cf       	rjmp	.-24     	; 0x50c <delay_ms+0x6>
     524:	08 95       	ret

00000526 <shift>:
// Shift the entire contents of the cube along an axis
// This is great for effects where you want to draw something
// on one side of the cube and have it flow towards the other
// side. Like rain flowing down the Z axiz.
void shift (char axis, int direction)
{
     526:	2f 92       	push	r2
     528:	3f 92       	push	r3
     52a:	4f 92       	push	r4
     52c:	5f 92       	push	r5
     52e:	6f 92       	push	r6
     530:	7f 92       	push	r7
     532:	8f 92       	push	r8
     534:	9f 92       	push	r9
     536:	af 92       	push	r10
     538:	bf 92       	push	r11
     53a:	cf 92       	push	r12
     53c:	df 92       	push	r13
     53e:	ef 92       	push	r14
     540:	ff 92       	push	r15
     542:	1f 93       	push	r17
     544:	cf 93       	push	r28
     546:	df 93       	push	r29
     548:	18 2f       	mov	r17, r24
     54a:	5b 01       	movw	r10, r22
	int i, x ,y;
	int ii, iii;
	int state;

	for (i = 0; i < CUBE_SIZE; i++)
     54c:	c1 2c       	mov	r12, r1
     54e:	d1 2c       	mov	r13, r1

// Shift the entire contents of the cube along an axis
// This is great for effects where you want to draw something
// on one side of the cube and have it flow towards the other
// side. Like rain flowing down the Z axiz.
void shift (char axis, int direction)
     550:	0f 2e       	mov	r0, r31
     552:	f7 e0       	ldi	r31, 0x07	; 7
     554:	8f 2e       	mov	r8, r31
     556:	91 2c       	mov	r9, r1
     558:	f0 2d       	mov	r31, r0
	int ii, iii;
	int state;

	for (i = 0; i < CUBE_SIZE; i++)
	{
		if (direction == -1)
     55a:	41 2c       	mov	r4, r1
     55c:	51 2c       	mov	r5, r1
     55e:	4f ef       	ldi	r20, 0xFF	; 255
     560:	a4 16       	cp	r10, r20
     562:	b4 06       	cpc	r11, r20
     564:	21 f0       	breq	.+8      	; 0x56e <shift+0x48>

// Shift the entire contents of the cube along an axis
// This is great for effects where you want to draw something
// on one side of the cube and have it flow towards the other
// side. Like rain flowing down the Z axiz.
void shift (char axis, int direction)
     566:	74 01       	movw	r14, r8
     568:	ec 18       	sub	r14, r12
     56a:	fd 08       	sbc	r15, r13
     56c:	01 c0       	rjmp	.+2      	; 0x570 <shift+0x4a>
	int ii, iii;
	int state;

	for (i = 0; i < CUBE_SIZE; i++)
	{
		if (direction == -1)
     56e:	76 01       	movw	r14, r12
		{
			for (y = 0; y < CUBE_SIZE; y++)
			{
				if (direction == -1)
				{
					iii = ii+1;
     570:	97 01       	movw	r18, r14
     572:	2f 5f       	subi	r18, 0xFF	; 255
     574:	3f 4f       	sbci	r19, 0xFF	; 255
				} else
				{
					iii = ii-1;
     576:	c7 01       	movw	r24, r14
     578:	01 97       	sbiw	r24, 0x01	; 1
     57a:	4f ef       	ldi	r20, 0xFF	; 255
     57c:	a4 16       	cp	r10, r20
     57e:	b4 06       	cpc	r11, r20
     580:	19 f4       	brne	.+6      	; 0x588 <shift+0x62>
     582:	62 2e       	mov	r6, r18
     584:	73 2e       	mov	r7, r19
     586:	02 c0       	rjmp	.+4      	; 0x58c <shift+0x66>
     588:	68 2e       	mov	r6, r24
     58a:	79 2e       	mov	r7, r25
		{
			ii = (7-i);
		}
		
		
		for (x = 0; x < CUBE_SIZE; x++)
     58c:	21 2c       	mov	r2, r1
     58e:	31 2c       	mov	r3, r1
     590:	3a c0       	rjmp	.+116    	; 0x606 <shift+0xe0>
				} else
				{
					iii = ii-1;
				}
				
				if (axis == AXIS_Z)
     592:	1a 37       	cpi	r17, 0x7A	; 122
     594:	71 f4       	brne	.+28     	; 0x5b2 <shift+0x8c>
				{
					state = getvoxel(x,y,iii);
     596:	46 2d       	mov	r20, r6
     598:	57 2d       	mov	r21, r7
     59a:	be 01       	movw	r22, r28
     59c:	c1 01       	movw	r24, r2
     59e:	0e 94 af 00 	call	0x15e	; 0x15e <getvoxel>
					altervoxel(x,y,ii,state);
     5a2:	28 2f       	mov	r18, r24
     5a4:	30 e0       	ldi	r19, 0x00	; 0
     5a6:	a7 01       	movw	r20, r14
     5a8:	be 01       	movw	r22, r28
     5aa:	c1 01       	movw	r24, r2
     5ac:	0e 94 d6 00 	call	0x1ac	; 0x1ac <altervoxel>
     5b0:	1f c0       	rjmp	.+62     	; 0x5f0 <shift+0xca>
				}
				
				if (axis == AXIS_Y)
     5b2:	19 37       	cpi	r17, 0x79	; 121
     5b4:	71 f4       	brne	.+28     	; 0x5d2 <shift+0xac>
				{
					state = getvoxel(x,iii,y);
     5b6:	ae 01       	movw	r20, r28
     5b8:	66 2d       	mov	r22, r6
     5ba:	77 2d       	mov	r23, r7
     5bc:	c1 01       	movw	r24, r2
     5be:	0e 94 af 00 	call	0x15e	; 0x15e <getvoxel>
					altervoxel(x,ii,y,state);
     5c2:	28 2f       	mov	r18, r24
     5c4:	30 e0       	ldi	r19, 0x00	; 0
     5c6:	ae 01       	movw	r20, r28
     5c8:	b7 01       	movw	r22, r14
     5ca:	c1 01       	movw	r24, r2
     5cc:	0e 94 d6 00 	call	0x1ac	; 0x1ac <altervoxel>
     5d0:	0f c0       	rjmp	.+30     	; 0x5f0 <shift+0xca>
				}
				
				if (axis == AXIS_X)
     5d2:	18 37       	cpi	r17, 0x78	; 120
     5d4:	69 f4       	brne	.+26     	; 0x5f0 <shift+0xca>
				{
					state = getvoxel(iii,y,x);
     5d6:	a1 01       	movw	r20, r2
     5d8:	be 01       	movw	r22, r28
     5da:	86 2d       	mov	r24, r6
     5dc:	97 2d       	mov	r25, r7
     5de:	0e 94 af 00 	call	0x15e	; 0x15e <getvoxel>
					altervoxel(ii,y,x,state);
     5e2:	28 2f       	mov	r18, r24
     5e4:	30 e0       	ldi	r19, 0x00	; 0
     5e6:	a1 01       	movw	r20, r2
     5e8:	be 01       	movw	r22, r28
     5ea:	c7 01       	movw	r24, r14
     5ec:	0e 94 d6 00 	call	0x1ac	; 0x1ac <altervoxel>
		}
		
		
		for (x = 0; x < CUBE_SIZE; x++)
		{
			for (y = 0; y < CUBE_SIZE; y++)
     5f0:	21 96       	adiw	r28, 0x01	; 1
     5f2:	c8 30       	cpi	r28, 0x08	; 8
     5f4:	d1 05       	cpc	r29, r1
     5f6:	69 f6       	brne	.-102    	; 0x592 <shift+0x6c>
		{
			ii = (7-i);
		}
		
		
		for (x = 0; x < CUBE_SIZE; x++)
     5f8:	8f ef       	ldi	r24, 0xFF	; 255
     5fa:	28 1a       	sub	r2, r24
     5fc:	38 0a       	sbc	r3, r24
     5fe:	48 e0       	ldi	r20, 0x08	; 8
     600:	24 16       	cp	r2, r20
     602:	31 04       	cpc	r3, r1
     604:	19 f0       	breq	.+6      	; 0x60c <shift+0xe6>
	int ii, iii;
	int state;

	for (i = 0; i < CUBE_SIZE; i++)
	{
		if (direction == -1)
     606:	c4 2d       	mov	r28, r4
     608:	d5 2d       	mov	r29, r5
     60a:	c3 cf       	rjmp	.-122    	; 0x592 <shift+0x6c>
{
	int i, x ,y;
	int ii, iii;
	int state;

	for (i = 0; i < CUBE_SIZE; i++)
     60c:	8f ef       	ldi	r24, 0xFF	; 255
     60e:	c8 1a       	sub	r12, r24
     610:	d8 0a       	sbc	r13, r24
     612:	48 e0       	ldi	r20, 0x08	; 8
     614:	c4 16       	cp	r12, r20
     616:	d1 04       	cpc	r13, r1
     618:	09 f0       	breq	.+2      	; 0x61c <shift+0xf6>
     61a:	a1 cf       	rjmp	.-190    	; 0x55e <shift+0x38>
				}
			}
		}
	}
	
	if (direction == -1)
     61c:	ab 20       	and	r10, r11
     61e:	a0 94       	com	r10
     620:	31 f4       	brne	.+12     	; 0x62e <shift+0x108>
	{
		i = 7;
     622:	0f 2e       	mov	r0, r31
     624:	f7 e0       	ldi	r31, 0x07	; 7
     626:	ef 2e       	mov	r14, r31
     628:	f1 2c       	mov	r15, r1
     62a:	f0 2d       	mov	r31, r0
     62c:	02 c0       	rjmp	.+4      	; 0x632 <shift+0x10c>
	} else
	{
		i = 0;
     62e:	e1 2c       	mov	r14, r1
     630:	f1 2c       	mov	r15, r1
	}
	
	for (x = 0; x < CUBE_SIZE; x++)
     632:	a1 2c       	mov	r10, r1
     634:	b1 2c       	mov	r11, r1
	if (direction == -1)
	{
		i = 7;
	} else
	{
		i = 0;
     636:	c1 2c       	mov	r12, r1
     638:	d1 2c       	mov	r13, r1
     63a:	22 c0       	rjmp	.+68     	; 0x680 <shift+0x15a>
	
	for (x = 0; x < CUBE_SIZE; x++)
	{
		for (y = 0; y < CUBE_SIZE; y++)
		{
			if (axis == AXIS_Z)
     63c:	1a 37       	cpi	r17, 0x7A	; 122
     63e:	31 f4       	brne	.+12     	; 0x64c <shift+0x126>
			clrvoxel(x,y,i);
     640:	a7 01       	movw	r20, r14
     642:	be 01       	movw	r22, r28
     644:	c5 01       	movw	r24, r10
     646:	0e 94 60 00 	call	0xc0	; 0xc0 <clrvoxel>
     64a:	0f c0       	rjmp	.+30     	; 0x66a <shift+0x144>
			
			if (axis == AXIS_Y)
     64c:	19 37       	cpi	r17, 0x79	; 121
     64e:	31 f4       	brne	.+12     	; 0x65c <shift+0x136>
			clrvoxel(x,i,y);
     650:	ae 01       	movw	r20, r28
     652:	b7 01       	movw	r22, r14
     654:	c5 01       	movw	r24, r10
     656:	0e 94 60 00 	call	0xc0	; 0xc0 <clrvoxel>
     65a:	07 c0       	rjmp	.+14     	; 0x66a <shift+0x144>
			
			if (axis == AXIS_X)
     65c:	18 37       	cpi	r17, 0x78	; 120
     65e:	29 f4       	brne	.+10     	; 0x66a <shift+0x144>
			clrvoxel(i,y,x);
     660:	a5 01       	movw	r20, r10
     662:	be 01       	movw	r22, r28
     664:	c7 01       	movw	r24, r14
     666:	0e 94 60 00 	call	0xc0	; 0xc0 <clrvoxel>
		i = 0;
	}
	
	for (x = 0; x < CUBE_SIZE; x++)
	{
		for (y = 0; y < CUBE_SIZE; y++)
     66a:	21 96       	adiw	r28, 0x01	; 1
     66c:	c8 30       	cpi	r28, 0x08	; 8
     66e:	d1 05       	cpc	r29, r1
     670:	29 f7       	brne	.-54     	; 0x63c <shift+0x116>
	} else
	{
		i = 0;
	}
	
	for (x = 0; x < CUBE_SIZE; x++)
     672:	4f ef       	ldi	r20, 0xFF	; 255
     674:	a4 1a       	sub	r10, r20
     676:	b4 0a       	sbc	r11, r20
     678:	88 e0       	ldi	r24, 0x08	; 8
     67a:	a8 16       	cp	r10, r24
     67c:	b1 04       	cpc	r11, r1
     67e:	11 f0       	breq	.+4      	; 0x684 <shift+0x15e>
	if (direction == -1)
	{
		i = 7;
	} else
	{
		i = 0;
     680:	e6 01       	movw	r28, r12
     682:	dc cf       	rjmp	.-72     	; 0x63c <shift+0x116>
			
			if (axis == AXIS_X)
			clrvoxel(i,y,x);
		}
	}
}
     684:	df 91       	pop	r29
     686:	cf 91       	pop	r28
     688:	1f 91       	pop	r17
     68a:	ff 90       	pop	r15
     68c:	ef 90       	pop	r14
     68e:	df 90       	pop	r13
     690:	cf 90       	pop	r12
     692:	bf 90       	pop	r11
     694:	af 90       	pop	r10
     696:	9f 90       	pop	r9
     698:	8f 90       	pop	r8
     69a:	7f 90       	pop	r7
     69c:	6f 90       	pop	r6
     69e:	5f 90       	pop	r5
     6a0:	4f 90       	pop	r4
     6a2:	3f 90       	pop	r3
     6a4:	2f 90       	pop	r2
     6a6:	08 95       	ret

000006a8 <mirror_y>:

// Flip the cube 180 degrees along the y axis.
void mirror_y (void)
{
     6a8:	4f 92       	push	r4
     6aa:	5f 92       	push	r5
     6ac:	6f 92       	push	r6
     6ae:	7f 92       	push	r7
     6b0:	8f 92       	push	r8
     6b2:	9f 92       	push	r9
     6b4:	af 92       	push	r10
     6b6:	bf 92       	push	r11
     6b8:	cf 92       	push	r12
     6ba:	df 92       	push	r13
     6bc:	ef 92       	push	r14
     6be:	ff 92       	push	r15
     6c0:	0f 93       	push	r16
     6c2:	1f 93       	push	r17
     6c4:	cf 93       	push	r28
     6c6:	df 93       	push	r29
     6c8:	cd b7       	in	r28, 0x3d	; 61
     6ca:	de b7       	in	r29, 0x3e	; 62
     6cc:	c0 54       	subi	r28, 0x40	; 64
     6ce:	d1 09       	sbc	r29, r1
     6d0:	0f b6       	in	r0, 0x3f	; 63
     6d2:	f8 94       	cli
     6d4:	de bf       	out	0x3e, r29	; 62
     6d6:	0f be       	out	0x3f, r0	; 63
     6d8:	cd bf       	out	0x3d, r28	; 61
	unsigned char buffer[CUBE_SIZE][CUBE_SIZE];
	unsigned char x,y,z;

	memcpy(buffer, cube, CUBE_BYTES); // copy the current cube into a buffer.
     6da:	80 e4       	ldi	r24, 0x40	; 64
     6dc:	e0 e0       	ldi	r30, 0x00	; 0
     6de:	f6 e0       	ldi	r31, 0x06	; 6
     6e0:	de 01       	movw	r26, r28
     6e2:	11 96       	adiw	r26, 0x01	; 1
     6e4:	01 90       	ld	r0, Z+
     6e6:	0d 92       	st	X+, r0
     6e8:	8a 95       	dec	r24
     6ea:	e1 f7       	brne	.-8      	; 0x6e4 <mirror_y+0x3c>

	fill(0x00);
     6ec:	80 e0       	ldi	r24, 0x00	; 0
     6ee:	0e 94 53 01 	call	0x2a6	; 0x2a6 <fill>
     6f2:	81 2c       	mov	r8, r1
     6f4:	91 2c       	mov	r9, r1
		}
	}
}

// Flip the cube 180 degrees along the y axis.
void mirror_y (void)
     6f6:	0f 2e       	mov	r0, r31
     6f8:	f7 e0       	ldi	r31, 0x07	; 7
     6fa:	6f 2e       	mov	r6, r31
     6fc:	71 2c       	mov	r7, r1
     6fe:	f0 2d       	mov	r31, r0
{
     700:	a1 2c       	mov	r10, r1
     702:	b1 2c       	mov	r11, r1
     704:	27 c0       	rjmp	.+78     	; 0x754 <mirror_y+0xac>
	{
		for (y=0; y<CUBE_SIZE; y++)
		{
			for (x=0; x<CUBE_SIZE; x++)
			{
				if (buffer[z][y] & (0x01 << x))
     706:	80 2f       	mov	r24, r16
     708:	91 2f       	mov	r25, r17
     70a:	f7 01       	movw	r30, r14
     70c:	20 81       	ld	r18, Z
     70e:	30 e0       	ldi	r19, 0x00	; 0
     710:	00 2e       	mov	r0, r16
     712:	02 c0       	rjmp	.+4      	; 0x718 <mirror_y+0x70>
     714:	35 95       	asr	r19
     716:	27 95       	ror	r18
     718:	0a 94       	dec	r0
     71a:	e2 f7       	brpl	.-8      	; 0x714 <mirror_y+0x6c>
     71c:	20 ff       	sbrs	r18, 0
     71e:	05 c0       	rjmp	.+10     	; 0x72a <mirror_y+0x82>
				setvoxel(x,CUBE_SIZE-1-y,z);
     720:	44 2d       	mov	r20, r4
     722:	55 2d       	mov	r21, r5
     724:	b6 01       	movw	r22, r12
     726:	0e 94 88 00 	call	0x110	; 0x110 <setvoxel>
     72a:	0f 5f       	subi	r16, 0xFF	; 255
     72c:	1f 4f       	sbci	r17, 0xFF	; 255
	fill(0x00);
	for (z=0; z<CUBE_SIZE; z++)
	{
		for (y=0; y<CUBE_SIZE; y++)
		{
			for (x=0; x<CUBE_SIZE; x++)
     72e:	08 30       	cpi	r16, 0x08	; 8
     730:	11 05       	cpc	r17, r1
     732:	49 f7       	brne	.-46     	; 0x706 <mirror_y+0x5e>
     734:	ff ef       	ldi	r31, 0xFF	; 255
     736:	ef 1a       	sub	r14, r31
     738:	ff 0a       	sbc	r15, r31
     73a:	81 e0       	ldi	r24, 0x01	; 1
     73c:	c8 1a       	sub	r12, r24
     73e:	d1 08       	sbc	r13, r1
     740:	10 f0       	brcs	.+4      	; 0x746 <mirror_y+0x9e>
	}
}

// Flip the cube 180 degrees along the y axis.
void mirror_y (void)
{
     742:	85 01       	movw	r16, r10
     744:	e0 cf       	rjmp	.-64     	; 0x706 <mirror_y+0x5e>
     746:	ef ef       	ldi	r30, 0xFF	; 255
     748:	8e 1a       	sub	r8, r30
     74a:	9e 0a       	sbc	r9, r30
	unsigned char x,y,z;

	memcpy(buffer, cube, CUBE_BYTES); // copy the current cube into a buffer.

	fill(0x00);
	for (z=0; z<CUBE_SIZE; z++)
     74c:	f8 e0       	ldi	r31, 0x08	; 8
     74e:	8f 16       	cp	r8, r31
     750:	91 04       	cpc	r9, r1
     752:	89 f0       	breq	.+34     	; 0x776 <mirror_y+0xce>
	{
		for (y=0; y<CUBE_SIZE; y++)
		{
			for (x=0; x<CUBE_SIZE; x++)
			{
				if (buffer[z][y] & (0x01 << x))
     754:	48 2c       	mov	r4, r8
     756:	59 2c       	mov	r5, r9
		}
	}
}

// Flip the cube 180 degrees along the y axis.
void mirror_y (void)
     758:	74 01       	movw	r14, r8
     75a:	ee 0c       	add	r14, r14
     75c:	ff 1c       	adc	r15, r15
     75e:	ee 0c       	add	r14, r14
     760:	ff 1c       	adc	r15, r15
     762:	ee 0c       	add	r14, r14
     764:	ff 1c       	adc	r15, r15
     766:	81 e0       	ldi	r24, 0x01	; 1
     768:	90 e0       	ldi	r25, 0x00	; 0
     76a:	8c 0f       	add	r24, r28
     76c:	9d 1f       	adc	r25, r29
     76e:	e8 0e       	add	r14, r24
     770:	f9 1e       	adc	r15, r25
     772:	63 01       	movw	r12, r6
     774:	e6 cf       	rjmp	.-52     	; 0x742 <mirror_y+0x9a>
				setvoxel(x,CUBE_SIZE-1-y,z);
			}
		}
	}

}
     776:	c0 5c       	subi	r28, 0xC0	; 192
     778:	df 4f       	sbci	r29, 0xFF	; 255
     77a:	0f b6       	in	r0, 0x3f	; 63
     77c:	f8 94       	cli
     77e:	de bf       	out	0x3e, r29	; 62
     780:	0f be       	out	0x3f, r0	; 63
     782:	cd bf       	out	0x3d, r28	; 61
     784:	df 91       	pop	r29
     786:	cf 91       	pop	r28
     788:	1f 91       	pop	r17
     78a:	0f 91       	pop	r16
     78c:	ff 90       	pop	r15
     78e:	ef 90       	pop	r14
     790:	df 90       	pop	r13
     792:	cf 90       	pop	r12
     794:	bf 90       	pop	r11
     796:	af 90       	pop	r10
     798:	9f 90       	pop	r9
     79a:	8f 90       	pop	r8
     79c:	7f 90       	pop	r7
     79e:	6f 90       	pop	r6
     7a0:	5f 90       	pop	r5
     7a2:	4f 90       	pop	r4
     7a4:	08 95       	ret

000007a6 <mirror_x>:

// Flip the cube 180 degrees along the x axis
void mirror_x (void)
{
     7a6:	8f 92       	push	r8
     7a8:	9f 92       	push	r9
     7aa:	af 92       	push	r10
     7ac:	bf 92       	push	r11
     7ae:	cf 92       	push	r12
     7b0:	df 92       	push	r13
     7b2:	ef 92       	push	r14
     7b4:	ff 92       	push	r15
     7b6:	0f 93       	push	r16
     7b8:	1f 93       	push	r17
     7ba:	cf 93       	push	r28
     7bc:	df 93       	push	r29
     7be:	cd b7       	in	r28, 0x3d	; 61
     7c0:	de b7       	in	r29, 0x3e	; 62
     7c2:	c0 54       	subi	r28, 0x40	; 64
     7c4:	d1 09       	sbc	r29, r1
     7c6:	0f b6       	in	r0, 0x3f	; 63
     7c8:	f8 94       	cli
     7ca:	de bf       	out	0x3e, r29	; 62
     7cc:	0f be       	out	0x3f, r0	; 63
     7ce:	cd bf       	out	0x3d, r28	; 61
	unsigned char buffer[CUBE_SIZE][CUBE_SIZE];
	unsigned char y,z;

	memcpy(buffer, cube, CUBE_BYTES); // copy the current cube into a buffer.
     7d0:	80 e4       	ldi	r24, 0x40	; 64
     7d2:	e0 e0       	ldi	r30, 0x00	; 0
     7d4:	f6 e0       	ldi	r31, 0x06	; 6
     7d6:	de 01       	movw	r26, r28
     7d8:	11 96       	adiw	r26, 0x01	; 1
     7da:	01 90       	ld	r0, Z+
     7dc:	0d 92       	st	X+, r0
     7de:	8a 95       	dec	r24
     7e0:	e1 f7       	brne	.-8      	; 0x7da <mirror_x+0x34>

	fill(0x00);
     7e2:	80 e0       	ldi	r24, 0x00	; 0
     7e4:	0e 94 53 01 	call	0x2a6	; 0x2a6 <fill>
     7e8:	a1 2c       	mov	r10, r1
     7ea:	b1 2c       	mov	r11, r1
	}

}

// Flip the cube 180 degrees along the x axis
void mirror_x (void)
     7ec:	81 2c       	mov	r8, r1
     7ee:	91 2c       	mov	r9, r1
     7f0:	17 c0       	rjmp	.+46     	; 0x820 <mirror_x+0x7a>
	for (z=0; z<CUBE_SIZE; z++)
	{
		for (y=0; y<CUBE_SIZE; y++)
		{
			// This will break with different buffer sizes..
			cube[z][y] = flipbyte(buffer[z][y]);
     7f2:	f7 01       	movw	r30, r14
     7f4:	81 91       	ld	r24, Z+
     7f6:	7f 01       	movw	r14, r30
     7f8:	0e 94 4d 02 	call	0x49a	; 0x49a <flipbyte>
     7fc:	f6 01       	movw	r30, r12
     7fe:	e0 0f       	add	r30, r16
     800:	f1 1f       	adc	r31, r17
     802:	e0 50       	subi	r30, 0x00	; 0
     804:	fa 4f       	sbci	r31, 0xFA	; 250
     806:	80 83       	st	Z, r24
     808:	0f 5f       	subi	r16, 0xFF	; 255
     80a:	1f 4f       	sbci	r17, 0xFF	; 255

	fill(0x00);
	
	for (z=0; z<CUBE_SIZE; z++)
	{
		for (y=0; y<CUBE_SIZE; y++)
     80c:	08 30       	cpi	r16, 0x08	; 8
     80e:	11 05       	cpc	r17, r1
     810:	81 f7       	brne	.-32     	; 0x7f2 <mirror_x+0x4c>
     812:	ff ef       	ldi	r31, 0xFF	; 255
     814:	af 1a       	sub	r10, r31
     816:	bf 0a       	sbc	r11, r31

	memcpy(buffer, cube, CUBE_BYTES); // copy the current cube into a buffer.

	fill(0x00);
	
	for (z=0; z<CUBE_SIZE; z++)
     818:	88 e0       	ldi	r24, 0x08	; 8
     81a:	a8 16       	cp	r10, r24
     81c:	b1 04       	cpc	r11, r1
     81e:	b1 f0       	breq	.+44     	; 0x84c <mirror_x+0xa6>
	}

}

// Flip the cube 180 degrees along the x axis
void mirror_x (void)
     820:	75 01       	movw	r14, r10
     822:	ee 0c       	add	r14, r14
     824:	ff 1c       	adc	r15, r15
     826:	ee 0c       	add	r14, r14
     828:	ff 1c       	adc	r15, r15
     82a:	ee 0c       	add	r14, r14
     82c:	ff 1c       	adc	r15, r15
     82e:	e1 e0       	ldi	r30, 0x01	; 1
     830:	f0 e0       	ldi	r31, 0x00	; 0
     832:	ec 0f       	add	r30, r28
     834:	fd 1f       	adc	r31, r29
     836:	ee 0e       	add	r14, r30
     838:	ff 1e       	adc	r15, r31
     83a:	84 01       	movw	r16, r8
	for (z=0; z<CUBE_SIZE; z++)
	{
		for (y=0; y<CUBE_SIZE; y++)
		{
			// This will break with different buffer sizes..
			cube[z][y] = flipbyte(buffer[z][y]);
     83c:	65 01       	movw	r12, r10
     83e:	cc 0c       	add	r12, r12
     840:	dd 1c       	adc	r13, r13
     842:	cc 0c       	add	r12, r12
     844:	dd 1c       	adc	r13, r13
     846:	cc 0c       	add	r12, r12
     848:	dd 1c       	adc	r13, r13
     84a:	d3 cf       	rjmp	.-90     	; 0x7f2 <mirror_x+0x4c>
		}
	}
}
     84c:	c0 5c       	subi	r28, 0xC0	; 192
     84e:	df 4f       	sbci	r29, 0xFF	; 255
     850:	0f b6       	in	r0, 0x3f	; 63
     852:	f8 94       	cli
     854:	de bf       	out	0x3e, r29	; 62
     856:	0f be       	out	0x3f, r0	; 63
     858:	cd bf       	out	0x3d, r28	; 61
     85a:	df 91       	pop	r29
     85c:	cf 91       	pop	r28
     85e:	1f 91       	pop	r17
     860:	0f 91       	pop	r16
     862:	ff 90       	pop	r15
     864:	ef 90       	pop	r14
     866:	df 90       	pop	r13
     868:	cf 90       	pop	r12
     86a:	bf 90       	pop	r11
     86c:	af 90       	pop	r10
     86e:	9f 90       	pop	r9
     870:	8f 90       	pop	r8
     872:	08 95       	ret

00000874 <mirror_z>:

// flip the cube 180 degrees along the z axis
void mirror_z (void)
{
     874:	1f 93       	push	r17
     876:	cf 93       	push	r28
     878:	df 93       	push	r29
     87a:	cd b7       	in	r28, 0x3d	; 61
     87c:	de b7       	in	r29, 0x3e	; 62
     87e:	c0 54       	subi	r28, 0x40	; 64
     880:	d1 09       	sbc	r29, r1
     882:	0f b6       	in	r0, 0x3f	; 63
     884:	f8 94       	cli
     886:	de bf       	out	0x3e, r29	; 62
     888:	0f be       	out	0x3f, r0	; 63
     88a:	cd bf       	out	0x3d, r28	; 61
	unsigned char buffer[CUBE_SIZE][CUBE_SIZE];
	unsigned char z, y;

	memcpy(buffer, cube, CUBE_BYTES); // copy the current cube into a buffer.
     88c:	80 e4       	ldi	r24, 0x40	; 64
     88e:	e0 e0       	ldi	r30, 0x00	; 0
     890:	f6 e0       	ldi	r31, 0x06	; 6
     892:	de 01       	movw	r26, r28
     894:	11 96       	adiw	r26, 0x01	; 1
     896:	01 90       	ld	r0, Z+
     898:	0d 92       	st	X+, r0
     89a:	8a 95       	dec	r24
     89c:	e1 f7       	brne	.-8      	; 0x896 <mirror_z+0x22>
     89e:	40 e0       	ldi	r20, 0x00	; 0
     8a0:	50 e0       	ldi	r21, 0x00	; 0
		}
	}
}

// flip the cube 180 degrees along the z axis
void mirror_z (void)
     8a2:	67 e0       	ldi	r22, 0x07	; 7
     8a4:	70 e0       	ldi	r23, 0x00	; 0
     8a6:	15 c0       	rjmp	.+42     	; 0x8d2 <mirror_z+0x5e>

	for (y=0; y<CUBE_SIZE; y++)
	{
		for (z=0; z<CUBE_SIZE; z++)
		{
			cube[CUBE_SIZE-1-z][y] = buffer[z][y];
     8a8:	10 81       	ld	r17, Z
     8aa:	dc 01       	movw	r26, r24
     8ac:	aa 0f       	add	r26, r26
     8ae:	bb 1f       	adc	r27, r27
     8b0:	aa 0f       	add	r26, r26
     8b2:	bb 1f       	adc	r27, r27
     8b4:	aa 0f       	add	r26, r26
     8b6:	bb 1f       	adc	r27, r27
     8b8:	a2 0f       	add	r26, r18
     8ba:	b3 1f       	adc	r27, r19
     8bc:	a0 50       	subi	r26, 0x00	; 0
     8be:	ba 4f       	sbci	r27, 0xFA	; 250
     8c0:	1c 93       	st	X, r17
     8c2:	38 96       	adiw	r30, 0x08	; 8
     8c4:	01 97       	sbiw	r24, 0x01	; 1
     8c6:	80 f7       	brcc	.-32     	; 0x8a8 <mirror_z+0x34>
     8c8:	4f 5f       	subi	r20, 0xFF	; 255
     8ca:	5f 4f       	sbci	r21, 0xFF	; 255
	unsigned char buffer[CUBE_SIZE][CUBE_SIZE];
	unsigned char z, y;

	memcpy(buffer, cube, CUBE_BYTES); // copy the current cube into a buffer.

	for (y=0; y<CUBE_SIZE; y++)
     8cc:	48 30       	cpi	r20, 0x08	; 8
     8ce:	51 05       	cpc	r21, r1
     8d0:	49 f0       	breq	.+18     	; 0x8e4 <mirror_z+0x70>
	{
		for (z=0; z<CUBE_SIZE; z++)
		{
			cube[CUBE_SIZE-1-z][y] = buffer[z][y];
     8d2:	9a 01       	movw	r18, r20
		}
	}
}

// flip the cube 180 degrees along the z axis
void mirror_z (void)
     8d4:	e1 e0       	ldi	r30, 0x01	; 1
     8d6:	f0 e0       	ldi	r31, 0x00	; 0
     8d8:	ec 0f       	add	r30, r28
     8da:	fd 1f       	adc	r31, r29
     8dc:	e4 0f       	add	r30, r20
     8de:	f5 1f       	adc	r31, r21
     8e0:	cb 01       	movw	r24, r22
     8e2:	e2 cf       	rjmp	.-60     	; 0x8a8 <mirror_z+0x34>
		for (z=0; z<CUBE_SIZE; z++)
		{
			cube[CUBE_SIZE-1-z][y] = buffer[z][y];
		}
	}
}
     8e4:	c0 5c       	subi	r28, 0xC0	; 192
     8e6:	df 4f       	sbci	r29, 0xFF	; 255
     8e8:	0f b6       	in	r0, 0x3f	; 63
     8ea:	f8 94       	cli
     8ec:	de bf       	out	0x3e, r29	; 62
     8ee:	0f be       	out	0x3f, r0	; 63
     8f0:	cd bf       	out	0x3d, r28	; 61
     8f2:	df 91       	pop	r29
     8f4:	cf 91       	pop	r28
     8f6:	1f 91       	pop	r17
     8f8:	08 95       	ret

000008fa <effect_stringfly2>:
	//}
}

//1 эфект бегущей строки
void effect_stringfly2(char * str)
{
     8fa:	2f 92       	push	r2
     8fc:	3f 92       	push	r3
     8fe:	4f 92       	push	r4
     900:	5f 92       	push	r5
     902:	6f 92       	push	r6
     904:	7f 92       	push	r7
     906:	8f 92       	push	r8
     908:	9f 92       	push	r9
     90a:	af 92       	push	r10
     90c:	bf 92       	push	r11
     90e:	cf 92       	push	r12
     910:	df 92       	push	r13
     912:	ef 92       	push	r14
     914:	ff 92       	push	r15
     916:	0f 93       	push	r16
     918:	1f 93       	push	r17
     91a:	cf 93       	push	r28
     91c:	df 93       	push	r29
     91e:	cd b7       	in	r28, 0x3d	; 61
     920:	de b7       	in	r29, 0x3e	; 62
     922:	27 97       	sbiw	r28, 0x07	; 7
     924:	0f b6       	in	r0, 0x3f	; 63
     926:	f8 94       	cli
     928:	de bf       	out	0x3e, r29	; 62
     92a:	0f be       	out	0x3f, r0	; 63
     92c:	cd bf       	out	0x3d, r28	; 61
     92e:	48 2e       	mov	r4, r24
     930:	59 2e       	mov	r5, r25
	unsigned char chr[7];
	
	while (*str)
	{
		//font_getchar(*str++, chr);
		font_getchar_rus(*str++, chr);
     932:	66 24       	eor	r6, r6
     934:	63 94       	inc	r6
     936:	71 2c       	mov	r7, r1
		// Put a character on the back of the cube
		for (x = 0; x < 7; x++)
		{
			for (y = 0; y < 8; y++)
			{
				if ((chr[x] & (0x80>>y)))
     938:	68 94       	set
     93a:	cc 24       	eor	r12, r12
     93c:	c7 f8       	bld	r12, 7
     93e:	d1 2c       	mov	r13, r1
	//}
}

//1 эфект бегущей строки
void effect_stringfly2(char * str)
{
     940:	81 2c       	mov	r8, r1
     942:	91 2c       	mov	r9, r1
	{
		//font_getchar(*str++, chr);
		font_getchar_rus(*str++, chr);
		
		// Put a character on the back of the cube
		for (x = 0; x < 7; x++)
     944:	0f 2e       	mov	r0, r31
     946:	f7 e0       	ldi	r31, 0x07	; 7
     948:	2f 2e       	mov	r2, r31
     94a:	31 2c       	mov	r3, r1
     94c:	f0 2d       	mov	r31, r0
void effect_stringfly2(char * str)
{
	int x,y,i;
	unsigned char chr[7];
	
	while (*str)
     94e:	3c c0       	rjmp	.+120    	; 0x9c8 <effect_stringfly2+0xce>
	{
		//font_getchar(*str++, chr);
		font_getchar_rus(*str++, chr);
     950:	be 01       	movw	r22, r28
     952:	6f 5f       	subi	r22, 0xFF	; 255
     954:	7f 4f       	sbci	r23, 0xFF	; 255
     956:	0e 94 9a 0b 	call	0x1734	; 0x1734 <font_getchar_rus>
     95a:	ee 24       	eor	r14, r14
     95c:	e3 94       	inc	r14
     95e:	f1 2c       	mov	r15, r1
     960:	ec 0e       	add	r14, r28
     962:	fd 1e       	adc	r15, r29
     964:	53 01       	movw	r10, r6
     966:	22 c0       	rjmp	.+68     	; 0x9ac <effect_stringfly2+0xb2>
		// Put a character on the back of the cube
		for (x = 0; x < 7; x++)
		{
			for (y = 0; y < 8; y++)
			{
				if ((chr[x] & (0x80>>y)))
     968:	96 01       	movw	r18, r12
     96a:	00 2e       	mov	r0, r16
     96c:	02 c0       	rjmp	.+4      	; 0x972 <effect_stringfly2+0x78>
     96e:	35 95       	asr	r19
     970:	27 95       	ror	r18
     972:	0a 94       	dec	r0
     974:	e2 f7       	brpl	.-8      	; 0x96e <effect_stringfly2+0x74>
     976:	f7 01       	movw	r30, r14
     978:	80 81       	ld	r24, Z
     97a:	90 e0       	ldi	r25, 0x00	; 0
     97c:	82 23       	and	r24, r18
     97e:	93 23       	and	r25, r19
     980:	89 2b       	or	r24, r25
     982:	29 f0       	breq	.+10     	; 0x98e <effect_stringfly2+0x94>
				{
					setvoxel(x+1,0,y);
     984:	a8 01       	movw	r20, r16
     986:	b4 01       	movw	r22, r8
     988:	c5 01       	movw	r24, r10
     98a:	0e 94 88 00 	call	0x110	; 0x110 <setvoxel>
		font_getchar_rus(*str++, chr);
		
		// Put a character on the back of the cube
		for (x = 0; x < 7; x++)
		{
			for (y = 0; y < 8; y++)
     98e:	0f 5f       	subi	r16, 0xFF	; 255
     990:	1f 4f       	sbci	r17, 0xFF	; 255
     992:	08 30       	cpi	r16, 0x08	; 8
     994:	11 05       	cpc	r17, r1
     996:	41 f7       	brne	.-48     	; 0x968 <effect_stringfly2+0x6e>
     998:	ff ef       	ldi	r31, 0xFF	; 255
     99a:	af 1a       	sub	r10, r31
     99c:	bf 0a       	sbc	r11, r31
     99e:	8f ef       	ldi	r24, 0xFF	; 255
     9a0:	e8 1a       	sub	r14, r24
     9a2:	f8 0a       	sbc	r15, r24
	{
		//font_getchar(*str++, chr);
		font_getchar_rus(*str++, chr);
		
		// Put a character on the back of the cube
		for (x = 0; x < 7; x++)
     9a4:	e8 e0       	ldi	r30, 0x08	; 8
     9a6:	ae 16       	cp	r10, r30
     9a8:	b1 04       	cpc	r11, r1
     9aa:	11 f0       	breq	.+4      	; 0x9b0 <effect_stringfly2+0xb6>
	//}
}

//1 эфект бегущей строки
void effect_stringfly2(char * str)
{
     9ac:	84 01       	movw	r16, r8
     9ae:	dc cf       	rjmp	.-72     	; 0x968 <effect_stringfly2+0x6e>
	{
		//font_getchar(*str++, chr);
		font_getchar_rus(*str++, chr);
		
		// Put a character on the back of the cube
		for (x = 0; x < 7; x++)
     9b0:	81 01       	movw	r16, r2
		
		// Shift the entire contents of the cube forward by 6 steps
		// before placing the next character
		for (i = 0; i<7; i++)
		{
			delay_ms(2000);
     9b2:	80 ed       	ldi	r24, 0xD0	; 208
     9b4:	97 e0       	ldi	r25, 0x07	; 7
     9b6:	0e 94 83 02 	call	0x506	; 0x506 <delay_ms>
			shift(AXIS_Y,1);
     9ba:	b3 01       	movw	r22, r6
     9bc:	89 e7       	ldi	r24, 0x79	; 121
     9be:	0e 94 93 02 	call	0x526	; 0x526 <shift>
     9c2:	01 50       	subi	r16, 0x01	; 1
     9c4:	11 09       	sbc	r17, r1
			}
		}
		
		// Shift the entire contents of the cube forward by 6 steps
		// before placing the next character
		for (i = 0; i<7; i++)
     9c6:	a9 f7       	brne	.-22     	; 0x9b2 <effect_stringfly2+0xb8>
void effect_stringfly2(char * str)
{
	int x,y,i;
	unsigned char chr[7];
	
	while (*str)
     9c8:	f2 01       	movw	r30, r4
     9ca:	81 91       	ld	r24, Z+
     9cc:	2f 01       	movw	r4, r30
     9ce:	81 11       	cpse	r24, r1
     9d0:	bf cf       	rjmp	.-130    	; 0x950 <effect_stringfly2+0x56>
     9d2:	08 e0       	ldi	r16, 0x08	; 8
     9d4:	10 e0       	ldi	r17, 0x00	; 0
		}
	}
	// Shift the last character out of the cube.
	for (i = 0; i<8; i++)
	{
		delay_ms(1000);
     9d6:	88 ee       	ldi	r24, 0xE8	; 232
     9d8:	93 e0       	ldi	r25, 0x03	; 3
     9da:	0e 94 83 02 	call	0x506	; 0x506 <delay_ms>
		shift(AXIS_Y,1);
     9de:	61 e0       	ldi	r22, 0x01	; 1
     9e0:	70 e0       	ldi	r23, 0x00	; 0
     9e2:	89 e7       	ldi	r24, 0x79	; 121
     9e4:	0e 94 93 02 	call	0x526	; 0x526 <shift>
     9e8:	01 50       	subi	r16, 0x01	; 1
     9ea:	11 09       	sbc	r17, r1
			delay_ms(2000);
			shift(AXIS_Y,1);
		}
	}
	// Shift the last character out of the cube.
	for (i = 0; i<8; i++)
     9ec:	a1 f7       	brne	.-24     	; 0x9d6 <effect_stringfly2+0xdc>
	{
		delay_ms(1000);
		shift(AXIS_Y,1);
	}
}
     9ee:	27 96       	adiw	r28, 0x07	; 7
     9f0:	0f b6       	in	r0, 0x3f	; 63
     9f2:	f8 94       	cli
     9f4:	de bf       	out	0x3e, r29	; 62
     9f6:	0f be       	out	0x3f, r0	; 63
     9f8:	cd bf       	out	0x3d, r28	; 61
     9fa:	df 91       	pop	r29
     9fc:	cf 91       	pop	r28
     9fe:	1f 91       	pop	r17
     a00:	0f 91       	pop	r16
     a02:	ff 90       	pop	r15
     a04:	ef 90       	pop	r14
     a06:	df 90       	pop	r13
     a08:	cf 90       	pop	r12
     a0a:	bf 90       	pop	r11
     a0c:	af 90       	pop	r10
     a0e:	9f 90       	pop	r9
     a10:	8f 90       	pop	r8
     a12:	7f 90       	pop	r7
     a14:	6f 90       	pop	r6
     a16:	5f 90       	pop	r5
     a18:	4f 90       	pop	r4
     a1a:	3f 90       	pop	r3
     a1c:	2f 90       	pop	r2
     a1e:	08 95       	ret

00000a20 <effect_planboing>:


//2 Слои и боковые грани быстро передвигаются 
void effect_planboing (int plane, int speed)
{
     a20:	ef 92       	push	r14
     a22:	ff 92       	push	r15
     a24:	0f 93       	push	r16
     a26:	1f 93       	push	r17
     a28:	cf 93       	push	r28
     a2a:	df 93       	push	r29
     a2c:	e8 2e       	mov	r14, r24
     a2e:	c0 e0       	ldi	r28, 0x00	; 0
	int i;
	for (i=0;i<8;i++)
	{
		fill(0x00);
		setplane(plane, i);
		delay_ms(speed);
     a30:	16 2f       	mov	r17, r22
     a32:	d7 2f       	mov	r29, r23
void effect_planboing (int plane, int speed)
{
	int i;
	for (i=0;i<8;i++)
	{
		fill(0x00);
     a34:	80 e0       	ldi	r24, 0x00	; 0
     a36:	0e 94 53 01 	call	0x2a6	; 0x2a6 <fill>
		setplane(plane, i);
     a3a:	6c 2f       	mov	r22, r28
     a3c:	8e 2d       	mov	r24, r14
     a3e:	0e 94 3e 01 	call	0x27c	; 0x27c <setplane>
		delay_ms(speed);
     a42:	01 2f       	mov	r16, r17
     a44:	fd 2e       	mov	r15, r29
     a46:	81 2f       	mov	r24, r17
     a48:	9d 2f       	mov	r25, r29
     a4a:	0e 94 83 02 	call	0x506	; 0x506 <delay_ms>
     a4e:	cf 5f       	subi	r28, 0xFF	; 255

//2 Слои и боковые грани быстро передвигаются 
void effect_planboing (int plane, int speed)
{
	int i;
	for (i=0;i<8;i++)
     a50:	c8 30       	cpi	r28, 0x08	; 8
     a52:	81 f7       	brne	.-32     	; 0xa34 <effect_planboing+0x14>
     a54:	c7 e0       	ldi	r28, 0x07	; 7
		delay_ms(speed);
	}
	
	for (i=7;i>=0;i--)
	{
		fill(0x00);
     a56:	80 e0       	ldi	r24, 0x00	; 0
     a58:	0e 94 53 01 	call	0x2a6	; 0x2a6 <fill>
		setplane(plane,i);
     a5c:	6c 2f       	mov	r22, r28
     a5e:	8e 2d       	mov	r24, r14
     a60:	0e 94 3e 01 	call	0x27c	; 0x27c <setplane>
		delay_ms(speed);
     a64:	80 2f       	mov	r24, r16
     a66:	9f 2d       	mov	r25, r15
     a68:	0e 94 83 02 	call	0x506	; 0x506 <delay_ms>
     a6c:	c1 50       	subi	r28, 0x01	; 1
     a6e:	98 f7       	brcc	.-26     	; 0xa56 <effect_planboing+0x36>
	}
}
     a70:	df 91       	pop	r29
     a72:	cf 91       	pop	r28
     a74:	1f 91       	pop	r17
     a76:	0f 91       	pop	r16
     a78:	ff 90       	pop	r15
     a7a:	ef 90       	pop	r14
     a7c:	08 95       	ret

00000a7e <effect_blinky2>:

//3 эффект блика
void effect_blinky2()
{
     a7e:	6f 92       	push	r6
     a80:	7f 92       	push	r7
     a82:	8f 92       	push	r8
     a84:	9f 92       	push	r9
     a86:	af 92       	push	r10
     a88:	bf 92       	push	r11
     a8a:	cf 92       	push	r12
     a8c:	df 92       	push	r13
     a8e:	ef 92       	push	r14
     a90:	ff 92       	push	r15
     a92:	0f 93       	push	r16
     a94:	1f 93       	push	r17
     a96:	cf 93       	push	r28
     a98:	df 93       	push	r29
	int i,r;
	fill(0x00);
     a9a:	80 e0       	ldi	r24, 0x00	; 0
     a9c:	0e 94 53 01 	call	0x2a6	; 0x2a6 <fill>
     aa0:	68 94       	set
     aa2:	88 24       	eor	r8, r8
     aa4:	81 f8       	bld	r8, 1
     aa6:	91 2c       	mov	r9, r1
	}
}

//3 эффект блика
void effect_blinky2()
{
     aa8:	0f 2e       	mov	r0, r31
     aaa:	fe ee       	ldi	r31, 0xEE	; 238
     aac:	6f 2e       	mov	r6, r31
     aae:	f2 e0       	ldi	r31, 0x02	; 2
     ab0:	7f 2e       	mov	r7, r31
     ab2:	f0 2d       	mov	r31, r0
			delay_ms(i);
			
			fill(0xff);
			delay_ms(100);
			
			i = i - (15+(1000/(i/10)));
     ab4:	0f 2e       	mov	r0, r31
     ab6:	fa e0       	ldi	r31, 0x0A	; 10
     ab8:	cf 2e       	mov	r12, r31
     aba:	d1 2c       	mov	r13, r1
     abc:	f0 2d       	mov	r31, r0
     abe:	08 ee       	ldi	r16, 0xE8	; 232
     ac0:	13 e0       	ldi	r17, 0x03	; 3
     ac2:	0f 2e       	mov	r0, r31
     ac4:	f1 ef       	ldi	r31, 0xF1	; 241
     ac6:	ef 2e       	mov	r14, r31
     ac8:	ff 24       	eor	r15, r15
     aca:	fa 94       	dec	r15
     acc:	f0 2d       	mov	r31, r0
		
		i = 750;
		while (i>0)
		{
			fill(0x00);
			delay_ms(751-i);
     ace:	0f 2e       	mov	r0, r31
     ad0:	ff ee       	ldi	r31, 0xEF	; 239
     ad2:	af 2e       	mov	r10, r31
     ad4:	f2 e0       	ldi	r31, 0x02	; 2
     ad6:	bf 2e       	mov	r11, r31
     ad8:	f0 2d       	mov	r31, r0
     ada:	42 c0       	rjmp	.+132    	; 0xb60 <effect_blinky2+0xe2>
	for (r=0;r<2;r++)
	{
		i = 750;
		while (i>0)
		{
			fill(0x00);
     adc:	80 e0       	ldi	r24, 0x00	; 0
     ade:	0e 94 53 01 	call	0x2a6	; 0x2a6 <fill>
			delay_ms(i);
     ae2:	ce 01       	movw	r24, r28
     ae4:	0e 94 83 02 	call	0x506	; 0x506 <delay_ms>
			
			fill(0xff);
     ae8:	8f ef       	ldi	r24, 0xFF	; 255
     aea:	0e 94 53 01 	call	0x2a6	; 0x2a6 <fill>
			delay_ms(100);
     aee:	84 e6       	ldi	r24, 0x64	; 100
     af0:	90 e0       	ldi	r25, 0x00	; 0
     af2:	0e 94 83 02 	call	0x506	; 0x506 <delay_ms>
			
			i = i - (15+(1000/(i/10)));
     af6:	ce 01       	movw	r24, r28
     af8:	b6 01       	movw	r22, r12
     afa:	0e 94 ed 0d 	call	0x1bda	; 0x1bda <__divmodhi4>
     afe:	c8 01       	movw	r24, r16
     b00:	0e 94 ed 0d 	call	0x1bda	; 0x1bda <__divmodhi4>
     b04:	c7 01       	movw	r24, r14
     b06:	86 1b       	sub	r24, r22
     b08:	97 0b       	sbc	r25, r23
     b0a:	c8 0f       	add	r28, r24
     b0c:	d9 1f       	adc	r29, r25
	fill(0x00);
	
	for (r=0;r<2;r++)
	{
		i = 750;
		while (i>0)
     b0e:	1c 16       	cp	r1, r28
     b10:	1d 06       	cpc	r1, r29
     b12:	24 f3       	brlt	.-56     	; 0xadc <effect_blinky2+0x5e>
			delay_ms(100);
			
			i = i - (15+(1000/(i/10)));
		}
		
		delay_ms(1000);
     b14:	c8 01       	movw	r24, r16
     b16:	0e 94 83 02 	call	0x506	; 0x506 <delay_ms>
		
		i = 750;
     b1a:	e3 01       	movw	r28, r6
		while (i>0)
		{
			fill(0x00);
     b1c:	80 e0       	ldi	r24, 0x00	; 0
     b1e:	0e 94 53 01 	call	0x2a6	; 0x2a6 <fill>
			delay_ms(751-i);
     b22:	c5 01       	movw	r24, r10
     b24:	8c 1b       	sub	r24, r28
     b26:	9d 0b       	sbc	r25, r29
     b28:	0e 94 83 02 	call	0x506	; 0x506 <delay_ms>
			
			fill(0xff);
     b2c:	8f ef       	ldi	r24, 0xFF	; 255
     b2e:	0e 94 53 01 	call	0x2a6	; 0x2a6 <fill>
			delay_ms(100);
     b32:	84 e6       	ldi	r24, 0x64	; 100
     b34:	90 e0       	ldi	r25, 0x00	; 0
     b36:	0e 94 83 02 	call	0x506	; 0x506 <delay_ms>
			
			i = i - (15+(1000/(i/10)));
     b3a:	ce 01       	movw	r24, r28
     b3c:	b6 01       	movw	r22, r12
     b3e:	0e 94 ed 0d 	call	0x1bda	; 0x1bda <__divmodhi4>
     b42:	c8 01       	movw	r24, r16
     b44:	0e 94 ed 0d 	call	0x1bda	; 0x1bda <__divmodhi4>
     b48:	c7 01       	movw	r24, r14
     b4a:	86 1b       	sub	r24, r22
     b4c:	97 0b       	sbc	r25, r23
     b4e:	c8 0f       	add	r28, r24
     b50:	d9 1f       	adc	r29, r25
		}
		
		delay_ms(1000);
		
		i = 750;
		while (i>0)
     b52:	1c 16       	cp	r1, r28
     b54:	1d 06       	cpc	r1, r29
     b56:	14 f3       	brlt	.-60     	; 0xb1c <effect_blinky2+0x9e>
     b58:	81 e0       	ldi	r24, 0x01	; 1
     b5a:	88 1a       	sub	r8, r24
     b5c:	91 08       	sbc	r9, r1
void effect_blinky2()
{
	int i,r;
	fill(0x00);
	
	for (r=0;r<2;r++)
     b5e:	11 f0       	breq	.+4      	; 0xb64 <effect_blinky2+0xe6>
	}
}

//3 эффект блика
void effect_blinky2()
{
     b60:	e3 01       	movw	r28, r6
     b62:	bc cf       	rjmp	.-136    	; 0xadc <effect_blinky2+0x5e>
			
			i = i - (15+(1000/(i/10)));
		}
	}

}
     b64:	df 91       	pop	r29
     b66:	cf 91       	pop	r28
     b68:	1f 91       	pop	r17
     b6a:	0f 91       	pop	r16
     b6c:	ff 90       	pop	r15
     b6e:	ef 90       	pop	r14
     b70:	df 90       	pop	r13
     b72:	cf 90       	pop	r12
     b74:	bf 90       	pop	r11
     b76:	af 90       	pop	r10
     b78:	9f 90       	pop	r9
     b7a:	8f 90       	pop	r8
     b7c:	7f 90       	pop	r7
     b7e:	6f 90       	pop	r6
     b80:	08 95       	ret

00000b82 <effect_box_shrink_grow>:

//4 квадраты передвигаются из угла в угол, сужаются, расширяются
void effect_box_shrink_grow (int iterations, int rot, int flip, uint16_t delay)
{
     b82:	2f 92       	push	r2
     b84:	3f 92       	push	r3
     b86:	4f 92       	push	r4
     b88:	5f 92       	push	r5
     b8a:	6f 92       	push	r6
     b8c:	7f 92       	push	r7
     b8e:	8f 92       	push	r8
     b90:	9f 92       	push	r9
     b92:	af 92       	push	r10
     b94:	bf 92       	push	r11
     b96:	cf 92       	push	r12
     b98:	df 92       	push	r13
     b9a:	ef 92       	push	r14
     b9c:	ff 92       	push	r15
     b9e:	0f 93       	push	r16
     ba0:	1f 93       	push	r17
     ba2:	cf 93       	push	r28
     ba4:	df 93       	push	r29
     ba6:	00 d0       	rcall	.+0      	; 0xba8 <effect_box_shrink_grow+0x26>
     ba8:	00 d0       	rcall	.+0      	; 0xbaa <effect_box_shrink_grow+0x28>
     baa:	00 d0       	rcall	.+0      	; 0xbac <effect_box_shrink_grow+0x2a>
     bac:	cd b7       	in	r28, 0x3d	; 61
     bae:	de b7       	in	r29, 0x3e	; 62
     bb0:	9c 83       	std	Y+4, r25	; 0x04
     bb2:	8b 83       	std	Y+3, r24	; 0x03
     bb4:	5b 01       	movw	r10, r22
     bb6:	2a 01       	movw	r4, r20
     bb8:	49 01       	movw	r8, r18
	int x, i, xyz;
	for (x=0;x<iterations;x++)
     bba:	18 16       	cp	r1, r24
     bbc:	19 06       	cpc	r1, r25
     bbe:	0c f4       	brge	.+2      	; 0xbc2 <effect_box_shrink_grow+0x40>
     bc0:	54 c0       	rjmp	.+168    	; 0xc6a <effect_box_shrink_grow+0xe8>
     bc2:	63 c0       	rjmp	.+198    	; 0xc8a <effect_box_shrink_grow+0x108>
	{
		for (i=0;i<16;i++)
		{
			xyz = 7-i; // This reverses counter i between 0 and 7.
			if (i > 7)
     bc4:	2d 81       	ldd	r18, Y+5	; 0x05
     bc6:	3e 81       	ldd	r19, Y+6	; 0x06
     bc8:	28 30       	cpi	r18, 0x08	; 8
     bca:	31 05       	cpc	r19, r1
     bcc:	44 f4       	brge	.+16     	; 0xbde <effect_box_shrink_grow+0x5c>
	}

}

//4 квадраты передвигаются из угла в угол, сужаются, расширяются
void effect_box_shrink_grow (int iterations, int rot, int flip, uint16_t delay)
     bce:	0f 2e       	mov	r0, r31
     bd0:	f7 e0       	ldi	r31, 0x07	; 7
     bd2:	6f 2e       	mov	r6, r31
     bd4:	71 2c       	mov	r7, r1
     bd6:	f0 2d       	mov	r31, r0
     bd8:	62 1a       	sub	r6, r18
     bda:	73 0a       	sbc	r7, r19
     bdc:	05 c0       	rjmp	.+10     	; 0xbe8 <effect_box_shrink_grow+0x66>
     bde:	6d 80       	ldd	r6, Y+5	; 0x05
     be0:	7e 80       	ldd	r7, Y+6	; 0x06
     be2:	38 e0       	ldi	r19, 0x08	; 8
     be4:	63 1a       	sub	r6, r19
     be6:	71 08       	sbc	r7, r1
		{
			xyz = 7-i; // This reverses counter i between 0 and 7.
			if (i > 7)
			xyz = i-8;
			
			fill(0x00); delay_ms(1);
     be8:	80 e0       	ldi	r24, 0x00	; 0
     bea:	0e 94 53 01 	call	0x2a6	; 0x2a6 <fill>
     bee:	81 e0       	ldi	r24, 0x01	; 1
     bf0:	90 e0       	ldi	r25, 0x00	; 0
     bf2:	0e 94 83 02 	call	0x506	; 0x506 <delay_ms>
			cli(); // запрет прерывания, куб продолжает отрабатывать
     bf6:	f8 94       	cli
			box_wireframe(0,0,0,xyz,xyz,xyz); // функция рисует карказ коробки куба (без стенок)
     bf8:	73 01       	movw	r14, r6
     bfa:	83 01       	movw	r16, r6
     bfc:	93 01       	movw	r18, r6
     bfe:	a6 01       	movw	r20, r12
     c00:	b6 01       	movw	r22, r12
     c02:	c6 01       	movw	r24, r12
     c04:	0e 94 81 01 	call	0x302	; 0x302 <box_wireframe>

			if (flip > 0) // upside-down
     c08:	14 14       	cp	r1, r4
     c0a:	15 04       	cpc	r1, r5
     c0c:	14 f4       	brge	.+4      	; 0xc12 <effect_box_shrink_grow+0x90>
			mirror_z(); //поворат куба на 180 градусов относитено оси z
     c0e:	0e 94 3a 04 	call	0x874	; 0x874 <mirror_z>

			if (rot == 1 || rot == 3)
     c12:	81 e0       	ldi	r24, 0x01	; 1
     c14:	a8 16       	cp	r10, r24
     c16:	b1 04       	cpc	r11, r1
     c18:	21 f0       	breq	.+8      	; 0xc22 <effect_box_shrink_grow+0xa0>
     c1a:	93 e0       	ldi	r25, 0x03	; 3
     c1c:	a9 16       	cp	r10, r25
     c1e:	b1 04       	cpc	r11, r1
     c20:	11 f4       	brne	.+4      	; 0xc26 <effect_box_shrink_grow+0xa4>
			mirror_y(); //поворат куба на 180 градусов относитено оси y
     c22:	0e 94 54 03 	call	0x6a8	; 0x6a8 <mirror_y>

			if (rot == 2 || rot == 3)
     c26:	e2 e0       	ldi	r30, 0x02	; 2
     c28:	2e 16       	cp	r2, r30
     c2a:	31 04       	cpc	r3, r1
     c2c:	10 f4       	brcc	.+4      	; 0xc32 <effect_box_shrink_grow+0xb0>
			mirror_x(); //поворат куба на 180 градусов относитено оси x
     c2e:	0e 94 d3 03 	call	0x7a6	; 0x7a6 <mirror_x>

			sei(); // разрешает прерывание
     c32:	78 94       	sei
			delay_ms(delay);
     c34:	c4 01       	movw	r24, r8
     c36:	0e 94 83 02 	call	0x506	; 0x506 <delay_ms>
			fill(0x00); //очистка куба
     c3a:	80 e0       	ldi	r24, 0x00	; 0
     c3c:	0e 94 53 01 	call	0x2a6	; 0x2a6 <fill>
void effect_box_shrink_grow (int iterations, int rot, int flip, uint16_t delay)
{
	int x, i, xyz;
	for (x=0;x<iterations;x++)
	{
		for (i=0;i<16;i++)
     c40:	2d 81       	ldd	r18, Y+5	; 0x05
     c42:	3e 81       	ldd	r19, Y+6	; 0x06
     c44:	2f 5f       	subi	r18, 0xFF	; 255
     c46:	3f 4f       	sbci	r19, 0xFF	; 255
     c48:	3e 83       	std	Y+6, r19	; 0x06
     c4a:	2d 83       	std	Y+5, r18	; 0x05
     c4c:	20 31       	cpi	r18, 0x10	; 16
     c4e:	31 05       	cpc	r19, r1
     c50:	09 f0       	breq	.+2      	; 0xc54 <effect_box_shrink_grow+0xd2>
     c52:	b8 cf       	rjmp	.-144    	; 0xbc4 <effect_box_shrink_grow+0x42>

//4 квадраты передвигаются из угла в угол, сужаются, расширяются
void effect_box_shrink_grow (int iterations, int rot, int flip, uint16_t delay)
{
	int x, i, xyz;
	for (x=0;x<iterations;x++)
     c54:	89 81       	ldd	r24, Y+1	; 0x01
     c56:	9a 81       	ldd	r25, Y+2	; 0x02
     c58:	01 96       	adiw	r24, 0x01	; 1
     c5a:	9a 83       	std	Y+2, r25	; 0x02
     c5c:	89 83       	std	Y+1, r24	; 0x01
     c5e:	eb 81       	ldd	r30, Y+3	; 0x03
     c60:	fc 81       	ldd	r31, Y+4	; 0x04
     c62:	8e 17       	cp	r24, r30
     c64:	9f 07       	cpc	r25, r31
     c66:	49 f4       	brne	.+18     	; 0xc7a <effect_box_shrink_grow+0xf8>
     c68:	10 c0       	rjmp	.+32     	; 0xc8a <effect_box_shrink_grow+0x108>
     c6a:	1a 82       	std	Y+2, r1	; 0x02
     c6c:	19 82       	std	Y+1, r1	; 0x01

}

//4 квадраты передвигаются из угла в угол, сужаются, расширяются
void effect_box_shrink_grow (int iterations, int rot, int flip, uint16_t delay)
{
     c6e:	c1 2c       	mov	r12, r1
     c70:	d1 2c       	mov	r13, r1
			mirror_z(); //поворат куба на 180 градусов относитено оси z

			if (rot == 1 || rot == 3)
			mirror_y(); //поворат куба на 180 градусов относитено оси y

			if (rot == 2 || rot == 3)
     c72:	1b 01       	movw	r2, r22
     c74:	f2 e0       	ldi	r31, 0x02	; 2
     c76:	2f 1a       	sub	r2, r31
     c78:	31 08       	sbc	r3, r1

}

//4 квадраты передвигаются из угла в угол, сужаются, расширяются
void effect_box_shrink_grow (int iterations, int rot, int flip, uint16_t delay)
{
     c7a:	de 82       	std	Y+6, r13	; 0x06
     c7c:	cd 82       	std	Y+5, r12	; 0x05
	int x, i, xyz;
	for (x=0;x<iterations;x++)
	{
		for (i=0;i<16;i++)
		{
			xyz = 7-i; // This reverses counter i between 0 and 7.
     c7e:	0f 2e       	mov	r0, r31
     c80:	f7 e0       	ldi	r31, 0x07	; 7
     c82:	6f 2e       	mov	r6, r31
     c84:	71 2c       	mov	r7, r1
     c86:	f0 2d       	mov	r31, r0
     c88:	af cf       	rjmp	.-162    	; 0xbe8 <effect_box_shrink_grow+0x66>
			sei(); // разрешает прерывание
			delay_ms(delay);
			fill(0x00); //очистка куба
		}
	}
}
     c8a:	26 96       	adiw	r28, 0x06	; 6
     c8c:	0f b6       	in	r0, 0x3f	; 63
     c8e:	f8 94       	cli
     c90:	de bf       	out	0x3e, r29	; 62
     c92:	0f be       	out	0x3f, r0	; 63
     c94:	cd bf       	out	0x3d, r28	; 61
     c96:	df 91       	pop	r29
     c98:	cf 91       	pop	r28
     c9a:	1f 91       	pop	r17
     c9c:	0f 91       	pop	r16
     c9e:	ff 90       	pop	r15
     ca0:	ef 90       	pop	r14
     ca2:	df 90       	pop	r13
     ca4:	cf 90       	pop	r12
     ca6:	bf 90       	pop	r11
     ca8:	af 90       	pop	r10
     caa:	9f 90       	pop	r9
     cac:	8f 90       	pop	r8
     cae:	7f 90       	pop	r7
     cb0:	6f 90       	pop	r6
     cb2:	5f 90       	pop	r5
     cb4:	4f 90       	pop	r4
     cb6:	3f 90       	pop	r3
     cb8:	2f 90       	pop	r2
     cba:	08 95       	ret

00000cbc <effect_box_woopwoop>:

// Creates a wireframe box that shrinks or grows out from the center of the cube.
//5 квадрат расширяется от середины
void effect_box_woopwoop (int delay, int grow)
{
     cbc:	8f 92       	push	r8
     cbe:	9f 92       	push	r9
     cc0:	af 92       	push	r10
     cc2:	bf 92       	push	r11
     cc4:	cf 92       	push	r12
     cc6:	df 92       	push	r13
     cc8:	ef 92       	push	r14
     cca:	ff 92       	push	r15
     ccc:	0f 93       	push	r16
     cce:	1f 93       	push	r17
     cd0:	cf 93       	push	r28
     cd2:	df 93       	push	r29
     cd4:	5c 01       	movw	r10, r24
     cd6:	6b 01       	movw	r12, r22
	int i,ii;
	
	fill(0x00); //очистка куба
     cd8:	80 e0       	ldi	r24, 0x00	; 0
     cda:	0e 94 53 01 	call	0x2a6	; 0x2a6 <fill>
	for (i=0;i<4;i++) //черыре периода роста и сужения квадрата
     cde:	c0 e0       	ldi	r28, 0x00	; 0
     ce0:	d0 e0       	ldi	r29, 0x00	; 0
	}
}

// Creates a wireframe box that shrinks or grows out from the center of the cube.
//5 квадрат расширяется от середины
void effect_box_woopwoop (int delay, int grow)
     ce2:	0f 2e       	mov	r0, r31
     ce4:	f3 e0       	ldi	r31, 0x03	; 3
     ce6:	8f 2e       	mov	r8, r31
     ce8:	91 2c       	mov	r9, r1
     cea:	f0 2d       	mov	r31, r0
	
	fill(0x00); //очистка куба
	for (i=0;i<4;i++) //черыре периода роста и сужения квадрата
	{
		ii = i; 
		if (grow > 0)
     cec:	1c 14       	cp	r1, r12
     cee:	1d 04       	cpc	r1, r13
     cf0:	24 f4       	brge	.+8      	; 0xcfa <effect_box_woopwoop+0x3e>
	}
}

// Creates a wireframe box that shrinks or grows out from the center of the cube.
//5 квадрат расширяется от середины
void effect_box_woopwoop (int delay, int grow)
     cf2:	c4 01       	movw	r24, r8
     cf4:	8c 1b       	sub	r24, r28
     cf6:	9d 0b       	sbc	r25, r29
     cf8:	01 c0       	rjmp	.+2      	; 0xcfc <effect_box_woopwoop+0x40>
	
	fill(0x00); //очистка куба
	for (i=0;i<4;i++) //черыре периода роста и сужения квадрата
	{
		ii = i; 
		if (grow > 0)
     cfa:	ce 01       	movw	r24, r28
		ii = 3-i;

		box_wireframe(4+ii,4+ii,4+ii,3-ii,3-ii,3-ii); // функция рисует каркас коробки куба (без стенок)
     cfc:	94 01       	movw	r18, r8
     cfe:	28 1b       	sub	r18, r24
     d00:	39 0b       	sbc	r19, r25
     d02:	04 96       	adiw	r24, 0x04	; 4
     d04:	79 01       	movw	r14, r18
     d06:	89 01       	movw	r16, r18
     d08:	ac 01       	movw	r20, r24
     d0a:	bc 01       	movw	r22, r24
     d0c:	0e 94 81 01 	call	0x302	; 0x302 <box_wireframe>
		delay_ms(delay); //задержка 
     d10:	c5 01       	movw	r24, r10
     d12:	0e 94 83 02 	call	0x506	; 0x506 <delay_ms>
		fill(0x00); //очистка куба
     d16:	80 e0       	ldi	r24, 0x00	; 0
     d18:	0e 94 53 01 	call	0x2a6	; 0x2a6 <fill>
void effect_box_woopwoop (int delay, int grow)
{
	int i,ii;
	
	fill(0x00); //очистка куба
	for (i=0;i<4;i++) //черыре периода роста и сужения квадрата
     d1c:	21 96       	adiw	r28, 0x01	; 1
     d1e:	c4 30       	cpi	r28, 0x04	; 4
     d20:	d1 05       	cpc	r29, r1
     d22:	21 f7       	brne	.-56     	; 0xcec <effect_box_woopwoop+0x30>

		box_wireframe(4+ii,4+ii,4+ii,3-ii,3-ii,3-ii); // функция рисует каркас коробки куба (без стенок)
		delay_ms(delay); //задержка 
		fill(0x00); //очистка куба
	}
}
     d24:	df 91       	pop	r29
     d26:	cf 91       	pop	r28
     d28:	1f 91       	pop	r17
     d2a:	0f 91       	pop	r16
     d2c:	ff 90       	pop	r15
     d2e:	ef 90       	pop	r14
     d30:	df 90       	pop	r13
     d32:	cf 90       	pop	r12
     d34:	bf 90       	pop	r11
     d36:	af 90       	pop	r10
     d38:	9f 90       	pop	r9
     d3a:	8f 90       	pop	r8
     d3c:	08 95       	ret

00000d3e <sendvoxel_z>:


// Send a voxel flying from one side of the cube to the other
// If its at the bottom, send it to the top..
void sendvoxel_z (unsigned char x, unsigned char y, unsigned char z, int delay)
{
     d3e:	7f 92       	push	r7
     d40:	8f 92       	push	r8
     d42:	9f 92       	push	r9
     d44:	af 92       	push	r10
     d46:	bf 92       	push	r11
     d48:	cf 92       	push	r12
     d4a:	df 92       	push	r13
     d4c:	ef 92       	push	r14
     d4e:	ff 92       	push	r15
     d50:	0f 93       	push	r16
     d52:	1f 93       	push	r17
     d54:	cf 93       	push	r28
     d56:	df 93       	push	r29
     d58:	88 2e       	mov	r8, r24
     d5a:	96 2e       	mov	r9, r22
     d5c:	74 2e       	mov	r7, r20
     d5e:	79 01       	movw	r14, r18
	int i, ii;
	for (i=0; i<8; i++)
     d60:	c0 e0       	ldi	r28, 0x00	; 0
     d62:	d0 e0       	ldi	r29, 0x00	; 0
}


// Send a voxel flying from one side of the cube to the other
// If its at the bottom, send it to the top..
void sendvoxel_z (unsigned char x, unsigned char y, unsigned char z, int delay)
     d64:	0f 2e       	mov	r0, r31
     d66:	f7 e0       	ldi	r31, 0x07	; 7
     d68:	af 2e       	mov	r10, r31
     d6a:	b1 2c       	mov	r11, r1
     d6c:	f0 2d       	mov	r31, r0
     d6e:	68 94       	set
     d70:	cc 24       	eor	r12, r12
     d72:	c3 f8       	bld	r12, 3
     d74:	d1 2c       	mov	r13, r1
{
	int i, ii;
	for (i=0; i<8; i++)
	{
		if (z == 7)
     d76:	87 e0       	ldi	r24, 0x07	; 7
     d78:	78 12       	cpse	r7, r24
     d7a:	0d c0       	rjmp	.+26     	; 0xd96 <sendvoxel_z+0x58>
}


// Send a voxel flying from one side of the cube to the other
// If its at the bottom, send it to the top..
void sendvoxel_z (unsigned char x, unsigned char y, unsigned char z, int delay)
     d7c:	85 01       	movw	r16, r10
     d7e:	0c 1b       	sub	r16, r28
     d80:	1d 0b       	sbc	r17, r29
     d82:	a6 01       	movw	r20, r12
     d84:	4c 1b       	sub	r20, r28
     d86:	5d 0b       	sbc	r21, r29
	for (i=0; i<8; i++)
	{
		if (z == 7)
		{
			ii = 7-i;
			clrvoxel(x,y,ii+1);
     d88:	69 2d       	mov	r22, r9
     d8a:	70 e0       	ldi	r23, 0x00	; 0
     d8c:	88 2d       	mov	r24, r8
     d8e:	90 e0       	ldi	r25, 0x00	; 0
     d90:	0e 94 60 00 	call	0xc0	; 0xc0 <clrvoxel>
     d94:	0a c0       	rjmp	.+20     	; 0xdaa <sendvoxel_z+0x6c>
}


// Send a voxel flying from one side of the cube to the other
// If its at the bottom, send it to the top..
void sendvoxel_z (unsigned char x, unsigned char y, unsigned char z, int delay)
     d96:	ae 01       	movw	r20, r28
     d98:	41 50       	subi	r20, 0x01	; 1
     d9a:	51 09       	sbc	r21, r1
			ii = 7-i;
			clrvoxel(x,y,ii+1);
		} else
		{
			ii = i;
			clrvoxel(x,y,ii-1);
     d9c:	69 2d       	mov	r22, r9
     d9e:	70 e0       	ldi	r23, 0x00	; 0
     da0:	88 2d       	mov	r24, r8
     da2:	90 e0       	ldi	r25, 0x00	; 0
     da4:	0e 94 60 00 	call	0xc0	; 0xc0 <clrvoxel>
     da8:	8e 01       	movw	r16, r28
		}
		setvoxel(x,y,ii);
     daa:	a8 01       	movw	r20, r16
     dac:	69 2d       	mov	r22, r9
     dae:	70 e0       	ldi	r23, 0x00	; 0
     db0:	88 2d       	mov	r24, r8
     db2:	90 e0       	ldi	r25, 0x00	; 0
     db4:	0e 94 88 00 	call	0x110	; 0x110 <setvoxel>
		delay_ms(delay);
     db8:	c7 01       	movw	r24, r14
     dba:	0e 94 83 02 	call	0x506	; 0x506 <delay_ms>
// Send a voxel flying from one side of the cube to the other
// If its at the bottom, send it to the top..
void sendvoxel_z (unsigned char x, unsigned char y, unsigned char z, int delay)
{
	int i, ii;
	for (i=0; i<8; i++)
     dbe:	21 96       	adiw	r28, 0x01	; 1
     dc0:	c8 30       	cpi	r28, 0x08	; 8
     dc2:	d1 05       	cpc	r29, r1
     dc4:	c1 f6       	brne	.-80     	; 0xd76 <sendvoxel_z+0x38>
			clrvoxel(x,y,ii-1);
		}
		setvoxel(x,y,ii);
		delay_ms(delay);
	}
}
     dc6:	df 91       	pop	r29
     dc8:	cf 91       	pop	r28
     dca:	1f 91       	pop	r17
     dcc:	0f 91       	pop	r16
     dce:	ff 90       	pop	r15
     dd0:	ef 90       	pop	r14
     dd2:	df 90       	pop	r13
     dd4:	cf 90       	pop	r12
     dd6:	bf 90       	pop	r11
     dd8:	af 90       	pop	r10
     dda:	9f 90       	pop	r9
     ddc:	8f 90       	pop	r8
     dde:	7f 90       	pop	r7
     de0:	08 95       	ret

00000de2 <sendvoxels_rand_z>:

// For each coordinate along X and Y, a voxel is set either at level 0 or at level 7
// for n iterations, a random voxel is sent to the opposite side of where it was.
//6 по одному воксилю перелетает сверху вниз и наоборот 
void sendvoxels_rand_z (int iterations, int delay, int wait)
{
     de2:	8f 92       	push	r8
     de4:	9f 92       	push	r9
     de6:	af 92       	push	r10
     de8:	bf 92       	push	r11
     dea:	cf 92       	push	r12
     dec:	df 92       	push	r13
     dee:	ef 92       	push	r14
     df0:	ff 92       	push	r15
     df2:	0f 93       	push	r16
     df4:	1f 93       	push	r17
     df6:	cf 93       	push	r28
     df8:	df 93       	push	r29
     dfa:	7c 01       	movw	r14, r24
     dfc:	4b 01       	movw	r8, r22
     dfe:	5a 01       	movw	r10, r20
	unsigned char x, y, last_x = 0, last_y = 0, i;

	fill(0x00);
     e00:	80 e0       	ldi	r24, 0x00	; 0
     e02:	0e 94 53 01 	call	0x2a6	; 0x2a6 <fill>
     e06:	00 e0       	ldi	r16, 0x00	; 0
     e08:	10 e0       	ldi	r17, 0x00	; 0

// For each coordinate along X and Y, a voxel is set either at level 0 or at level 7
// for n iterations, a random voxel is sent to the opposite side of where it was.
//6 по одному воксилю перелетает сверху вниз и наоборот 
void sendvoxels_rand_z (int iterations, int delay, int wait)
{
     e0a:	c1 2c       	mov	r12, r1
     e0c:	d1 2c       	mov	r13, r1
     e0e:	20 c0       	rjmp	.+64     	; 0xe50 <sendvoxels_rand_z+0x6e>
	for (x=0;x<8;x++)
	{
		for (y=0;y<8;y++)
		{
			//Установка вокселей вверху и внизу в случайном порядке
			setvoxel(x,y,((rand()%2)*7));
     e10:	0e 94 66 0e 	call	0x1ccc	; 0x1ccc <rand>
     e14:	81 70       	andi	r24, 0x01	; 1
     e16:	90 78       	andi	r25, 0x80	; 128
     e18:	99 23       	and	r25, r25
     e1a:	24 f4       	brge	.+8      	; 0xe24 <sendvoxels_rand_z+0x42>
     e1c:	01 97       	sbiw	r24, 0x01	; 1
     e1e:	8e 6f       	ori	r24, 0xFE	; 254
     e20:	9f 6f       	ori	r25, 0xFF	; 255
     e22:	01 96       	adiw	r24, 0x01	; 1
     e24:	ac 01       	movw	r20, r24
     e26:	44 0f       	add	r20, r20
     e28:	55 1f       	adc	r21, r21
     e2a:	44 0f       	add	r20, r20
     e2c:	55 1f       	adc	r21, r21
     e2e:	44 0f       	add	r20, r20
     e30:	55 1f       	adc	r21, r21
     e32:	48 1b       	sub	r20, r24
     e34:	59 0b       	sbc	r21, r25
     e36:	be 01       	movw	r22, r28
     e38:	c8 01       	movw	r24, r16
     e3a:	0e 94 88 00 	call	0x110	; 0x110 <setvoxel>
     e3e:	21 96       	adiw	r28, 0x01	; 1
	fill(0x00);

	// Перебирает все X и Y координаты
	for (x=0;x<8;x++)
	{
		for (y=0;y<8;y++)
     e40:	c8 30       	cpi	r28, 0x08	; 8
     e42:	d1 05       	cpc	r29, r1
     e44:	29 f7       	brne	.-54     	; 0xe10 <sendvoxels_rand_z+0x2e>
     e46:	0f 5f       	subi	r16, 0xFF	; 255
     e48:	1f 4f       	sbci	r17, 0xFF	; 255
	unsigned char x, y, last_x = 0, last_y = 0, i;

	fill(0x00);

	// Перебирает все X и Y координаты
	for (x=0;x<8;x++)
     e4a:	08 30       	cpi	r16, 0x08	; 8
     e4c:	11 05       	cpc	r17, r1
     e4e:	11 f0       	breq	.+4      	; 0xe54 <sendvoxels_rand_z+0x72>

// For each coordinate along X and Y, a voxel is set either at level 0 or at level 7
// for n iterations, a random voxel is sent to the opposite side of where it was.
//6 по одному воксилю перелетает сверху вниз и наоборот 
void sendvoxels_rand_z (int iterations, int delay, int wait)
{
     e50:	e6 01       	movw	r28, r12
     e52:	de cf       	rjmp	.-68     	; 0xe10 <sendvoxels_rand_z+0x2e>
			//Установка вокселей вверху и внизу в случайном порядке
			setvoxel(x,y,((rand()%2)*7));
		}
	}

	for (i=0;i<iterations;i++)
     e54:	1e 14       	cp	r1, r14
     e56:	1f 04       	cpc	r1, r15
     e58:	0c f0       	brlt	.+2      	; 0xe5c <sendvoxels_rand_z+0x7a>
     e5a:	41 c0       	rjmp	.+130    	; 0xede <sendvoxels_rand_z+0xfc>
     e5c:	10 e0       	ldi	r17, 0x00	; 0
     e5e:	00 e0       	ldi	r16, 0x00	; 0
     e60:	d1 2c       	mov	r13, r1
	{
		// Выбирает все случайные xy координаты
		x = rand()%8;
     e62:	0e 94 66 0e 	call	0x1ccc	; 0x1ccc <rand>
     e66:	ec 01       	movw	r28, r24
		y = rand()%8;
     e68:	0e 94 66 0e 	call	0x1ccc	; 0x1ccc <rand>
     e6c:	87 70       	andi	r24, 0x07	; 7
     e6e:	90 78       	andi	r25, 0x80	; 128
     e70:	99 23       	and	r25, r25
     e72:	24 f4       	brge	.+8      	; 0xe7c <sendvoxels_rand_z+0x9a>
     e74:	01 97       	sbiw	r24, 0x01	; 1
     e76:	88 6f       	ori	r24, 0xF8	; 248
     e78:	9f 6f       	ori	r25, 0xFF	; 255
     e7a:	01 96       	adiw	r24, 0x01	; 1
     e7c:	ac 01       	movw	r20, r24
     e7e:	c8 2e       	mov	r12, r24
		if (y != last_y && x != last_x)
     e80:	80 17       	cp	r24, r16
     e82:	39 f1       	breq	.+78     	; 0xed2 <sendvoxels_rand_z+0xf0>
	}

	for (i=0;i<iterations;i++)
	{
		// Выбирает все случайные xy координаты
		x = rand()%8;
     e84:	ce 01       	movw	r24, r28
     e86:	87 70       	andi	r24, 0x07	; 7
     e88:	90 78       	andi	r25, 0x80	; 128
     e8a:	99 23       	and	r25, r25
     e8c:	24 f4       	brge	.+8      	; 0xe96 <sendvoxels_rand_z+0xb4>
     e8e:	01 97       	sbiw	r24, 0x01	; 1
     e90:	88 6f       	ori	r24, 0xF8	; 248
     e92:	9f 6f       	ori	r25, 0xFF	; 255
     e94:	01 96       	adiw	r24, 0x01	; 1
     e96:	c8 2f       	mov	r28, r24
		y = rand()%8;
		if (y != last_y && x != last_x)
     e98:	8d 15       	cp	r24, r13
     e9a:	d9 f0       	breq	.+54     	; 0xed2 <sendvoxels_rand_z+0xf0>
		{
			// Если воксель находится внизу 
			if (getvoxel(x,y,0))
     e9c:	ba 01       	movw	r22, r20
     e9e:	77 27       	eor	r23, r23
     ea0:	40 e0       	ldi	r20, 0x00	; 0
     ea2:	50 e0       	ldi	r21, 0x00	; 0
     ea4:	90 e0       	ldi	r25, 0x00	; 0
     ea6:	0e 94 af 00 	call	0x15e	; 0x15e <getvoxel>
     eaa:	88 23       	and	r24, r24
     eac:	39 f0       	breq	.+14     	; 0xebc <sendvoxels_rand_z+0xda>
			{
				// отправка вокселя наверх 
				sendvoxel_z(x,y,0,delay);
     eae:	94 01       	movw	r18, r8
     eb0:	40 e0       	ldi	r20, 0x00	; 0
     eb2:	6c 2d       	mov	r22, r12
     eb4:	8c 2f       	mov	r24, r28
     eb6:	0e 94 9f 06 	call	0xd3e	; 0xd3e <sendvoxel_z>
     eba:	06 c0       	rjmp	.+12     	; 0xec8 <sendvoxels_rand_z+0xe6>
			} else
			{
				// если воксель сверх, то отправить его вниз
				sendvoxel_z(x,y,7,delay);
     ebc:	94 01       	movw	r18, r8
     ebe:	47 e0       	ldi	r20, 0x07	; 7
     ec0:	6c 2d       	mov	r22, r12
     ec2:	8c 2f       	mov	r24, r28
     ec4:	0e 94 9f 06 	call	0xd3e	; 0xd3e <sendvoxel_z>
			}
			delay_ms(wait);
     ec8:	c5 01       	movw	r24, r10
     eca:	0e 94 83 02 	call	0x506	; 0x506 <delay_ms>
			
			// Запоминает последний ход 
			last_y = y;
     ece:	0c 2d       	mov	r16, r12
			last_x = x;
     ed0:	dc 2e       	mov	r13, r28
			//Установка вокселей вверху и внизу в случайном порядке
			setvoxel(x,y,((rand()%2)*7));
		}
	}

	for (i=0;i<iterations;i++)
     ed2:	1f 5f       	subi	r17, 0xFF	; 255
     ed4:	81 2f       	mov	r24, r17
     ed6:	90 e0       	ldi	r25, 0x00	; 0
     ed8:	8e 15       	cp	r24, r14
     eda:	9f 05       	cpc	r25, r15
     edc:	14 f2       	brlt	.-124    	; 0xe62 <sendvoxels_rand_z+0x80>
			last_y = y;
			last_x = x;
		}
	}

}
     ede:	df 91       	pop	r29
     ee0:	cf 91       	pop	r28
     ee2:	1f 91       	pop	r17
     ee4:	0f 91       	pop	r16
     ee6:	ff 90       	pop	r15
     ee8:	ef 90       	pop	r14
     eea:	df 90       	pop	r13
     eec:	cf 90       	pop	r12
     eee:	bf 90       	pop	r11
     ef0:	af 90       	pop	r10
     ef2:	9f 90       	pop	r9
     ef4:	8f 90       	pop	r8
     ef6:	08 95       	ret

00000ef8 <effect_random_filler>:
}

// Set or clear exactly 512 voxels in a random order.
//8 зажигание всего куба по одному вокселю 
void effect_random_filler (int delay, int state)
{
     ef8:	8f 92       	push	r8
     efa:	9f 92       	push	r9
     efc:	af 92       	push	r10
     efe:	bf 92       	push	r11
     f00:	cf 92       	push	r12
     f02:	df 92       	push	r13
     f04:	ef 92       	push	r14
     f06:	ff 92       	push	r15
     f08:	0f 93       	push	r16
     f0a:	1f 93       	push	r17
     f0c:	cf 93       	push	r28
     f0e:	df 93       	push	r29
     f10:	7c 01       	movw	r14, r24
     f12:	eb 01       	movw	r28, r22
	int x,y,z;
	int loop = 0;
	
	
	if (state == 1)
     f14:	61 30       	cpi	r22, 0x01	; 1
     f16:	71 05       	cpc	r23, r1
     f18:	21 f4       	brne	.+8      	; 0xf22 <effect_random_filler+0x2a>
	{
		fill(0x00); //очистка куба
     f1a:	80 e0       	ldi	r24, 0x00	; 0
     f1c:	0e 94 53 01 	call	0x2a6	; 0x2a6 <fill>
     f20:	56 c0       	rjmp	.+172    	; 0xfce <effect_random_filler+0xd6>
	} else
	{
		fill(0xff); //заполнение куба
     f22:	8f ef       	ldi	r24, 0xFF	; 255
     f24:	0e 94 53 01 	call	0x2a6	; 0x2a6 <fill>
     f28:	52 c0       	rjmp	.+164    	; 0xfce <effect_random_filler+0xd6>
	}
	
	while (loop<511) // проверка заполнения всего куба
	{
		x = rand()%8;// рандомное значение координаты X
     f2a:	0e 94 66 0e 	call	0x1ccc	; 0x1ccc <rand>
     f2e:	87 70       	andi	r24, 0x07	; 7
     f30:	90 78       	andi	r25, 0x80	; 128
     f32:	99 23       	and	r25, r25
     f34:	24 f4       	brge	.+8      	; 0xf3e <effect_random_filler+0x46>
     f36:	01 97       	sbiw	r24, 0x01	; 1
     f38:	88 6f       	ori	r24, 0xF8	; 248
     f3a:	9f 6f       	ori	r25, 0xFF	; 255
     f3c:	01 96       	adiw	r24, 0x01	; 1
     f3e:	c8 2e       	mov	r12, r24
     f40:	d9 2e       	mov	r13, r25
		y = rand()%8;// рандомное значение координаты Y
     f42:	0e 94 66 0e 	call	0x1ccc	; 0x1ccc <rand>
     f46:	87 70       	andi	r24, 0x07	; 7
     f48:	90 78       	andi	r25, 0x80	; 128
     f4a:	99 23       	and	r25, r25
     f4c:	24 f4       	brge	.+8      	; 0xf56 <effect_random_filler+0x5e>
     f4e:	01 97       	sbiw	r24, 0x01	; 1
     f50:	88 6f       	ori	r24, 0xF8	; 248
     f52:	9f 6f       	ori	r25, 0xFF	; 255
     f54:	01 96       	adiw	r24, 0x01	; 1
     f56:	a8 2e       	mov	r10, r24
     f58:	b9 2e       	mov	r11, r25
		z = rand()%8;// рандомное значение координаты Z
     f5a:	0e 94 66 0e 	call	0x1ccc	; 0x1ccc <rand>
     f5e:	87 70       	andi	r24, 0x07	; 7
     f60:	90 78       	andi	r25, 0x80	; 128
     f62:	99 23       	and	r25, r25
     f64:	24 f4       	brge	.+8      	; 0xf6e <effect_random_filler+0x76>
     f66:	01 97       	sbiw	r24, 0x01	; 1
     f68:	88 6f       	ori	r24, 0xF8	; 248
     f6a:	9f 6f       	ori	r25, 0xFF	; 255
     f6c:	01 96       	adiw	r24, 0x01	; 1
     f6e:	88 2e       	mov	r8, r24
     f70:	99 2e       	mov	r9, r25

		if ((state == 0 && getvoxel(x,y,z) == 0x01) || (state == 1 && getvoxel(x,y,z) == 0x00))
     f72:	20 97       	sbiw	r28, 0x00	; 0
     f74:	59 f4       	brne	.+22     	; 0xf8c <effect_random_filler+0x94>
     f76:	48 2f       	mov	r20, r24
     f78:	59 2f       	mov	r21, r25
     f7a:	6a 2d       	mov	r22, r10
     f7c:	7b 2d       	mov	r23, r11
     f7e:	8c 2d       	mov	r24, r12
     f80:	9d 2d       	mov	r25, r13
     f82:	0e 94 af 00 	call	0x15e	; 0x15e <getvoxel>
     f86:	81 30       	cpi	r24, 0x01	; 1
     f88:	e1 f4       	brne	.+56     	; 0xfc2 <effect_random_filler+0xca>
     f8a:	0d c0       	rjmp	.+26     	; 0xfa6 <effect_random_filler+0xae>
     f8c:	c1 30       	cpi	r28, 0x01	; 1
     f8e:	d1 05       	cpc	r29, r1
     f90:	c1 f4       	brne	.+48     	; 0xfc2 <effect_random_filler+0xca>
     f92:	48 2f       	mov	r20, r24
     f94:	59 2f       	mov	r21, r25
     f96:	6a 2d       	mov	r22, r10
     f98:	7b 2d       	mov	r23, r11
     f9a:	8c 2d       	mov	r24, r12
     f9c:	9d 2d       	mov	r25, r13
     f9e:	0e 94 af 00 	call	0x15e	; 0x15e <getvoxel>
     fa2:	81 11       	cpse	r24, r1
     fa4:	0e c0       	rjmp	.+28     	; 0xfc2 <effect_random_filler+0xca>
		{
			altervoxel(x,y,z,state);
     fa6:	9e 01       	movw	r18, r28
     fa8:	48 2d       	mov	r20, r8
     faa:	59 2d       	mov	r21, r9
     fac:	6a 2d       	mov	r22, r10
     fae:	7b 2d       	mov	r23, r11
     fb0:	8c 2d       	mov	r24, r12
     fb2:	9d 2d       	mov	r25, r13
     fb4:	0e 94 d6 00 	call	0x1ac	; 0x1ac <altervoxel>
			delay_ms(delay);
     fb8:	c7 01       	movw	r24, r14
     fba:	0e 94 83 02 	call	0x506	; 0x506 <delay_ms>
			loop++;
     fbe:	0f 5f       	subi	r16, 0xFF	; 255
     fc0:	1f 4f       	sbci	r17, 0xFF	; 255
	} else
	{
		fill(0xff); //заполнение куба
	}
	
	while (loop<511) // проверка заполнения всего куба
     fc2:	0f 3f       	cpi	r16, 0xFF	; 255
     fc4:	81 e0       	ldi	r24, 0x01	; 1
     fc6:	18 07       	cpc	r17, r24
     fc8:	0c f4       	brge	.+2      	; 0xfcc <effect_random_filler+0xd4>
     fca:	af cf       	rjmp	.-162    	; 0xf2a <effect_random_filler+0x32>
     fcc:	03 c0       	rjmp	.+6      	; 0xfd4 <effect_random_filler+0xdc>
}

// Set or clear exactly 512 voxels in a random order.
//8 зажигание всего куба по одному вокселю 
void effect_random_filler (int delay, int state)
{
     fce:	00 e0       	ldi	r16, 0x00	; 0
     fd0:	10 e0       	ldi	r17, 0x00	; 0
     fd2:	ab cf       	rjmp	.-170    	; 0xf2a <effect_random_filler+0x32>
			altervoxel(x,y,z,state);
			delay_ms(delay);
			loop++;
		}
	}
}
     fd4:	df 91       	pop	r29
     fd6:	cf 91       	pop	r28
     fd8:	1f 91       	pop	r17
     fda:	0f 91       	pop	r16
     fdc:	ff 90       	pop	r15
     fde:	ef 90       	pop	r14
     fe0:	df 90       	pop	r13
     fe2:	cf 90       	pop	r12
     fe4:	bf 90       	pop	r11
     fe6:	af 90       	pop	r10
     fe8:	9f 90       	pop	r9
     fea:	8f 90       	pop	r8
     fec:	08 95       	ret

00000fee <effect_rain>:
	
}

//9 эфект дождя 
void effect_rain (int iterations)
{
     fee:	8f 92       	push	r8
     ff0:	9f 92       	push	r9
     ff2:	af 92       	push	r10
     ff4:	bf 92       	push	r11
     ff6:	cf 92       	push	r12
     ff8:	df 92       	push	r13
     ffa:	ef 92       	push	r14
     ffc:	ff 92       	push	r15
     ffe:	0f 93       	push	r16
    1000:	1f 93       	push	r17
    1002:	cf 93       	push	r28
    1004:	df 93       	push	r29
    1006:	5c 01       	movw	r10, r24
	int i, ii;
	int rnd_x;
	int rnd_y;
	int rnd_num;
	
	for (ii=0; ii<iterations; ii++)
    1008:	18 16       	cp	r1, r24
    100a:	19 06       	cpc	r1, r25
    100c:	0c f0       	brlt	.+2      	; 0x1010 <effect_rain+0x22>
    100e:	43 c0       	rjmp	.+134    	; 0x1096 <effect_rain+0xa8>
    1010:	c1 2c       	mov	r12, r1
    1012:	d1 2c       	mov	r13, r1
	{
		rnd_num = rand()%4;
		
		for (i=0; i < rnd_num; i++)
    1014:	81 2c       	mov	r8, r1
    1016:	91 2c       	mov	r9, r1
	int rnd_y;
	int rnd_num;
	
	for (ii=0; ii<iterations; ii++)
	{
		rnd_num = rand()%4;
    1018:	0e 94 66 0e 	call	0x1ccc	; 0x1ccc <rand>
    101c:	83 70       	andi	r24, 0x03	; 3
    101e:	90 78       	andi	r25, 0x80	; 128
    1020:	99 23       	and	r25, r25
    1022:	24 f4       	brge	.+8      	; 0x102c <effect_rain+0x3e>
    1024:	01 97       	sbiw	r24, 0x01	; 1
    1026:	8c 6f       	ori	r24, 0xFC	; 252
    1028:	9f 6f       	ori	r25, 0xFF	; 255
    102a:	01 96       	adiw	r24, 0x01	; 1
    102c:	7c 01       	movw	r14, r24
		
		for (i=0; i < rnd_num; i++)
    102e:	18 16       	cp	r1, r24
    1030:	19 06       	cpc	r1, r25
    1032:	14 f5       	brge	.+68     	; 0x1078 <effect_rain+0x8a>
    1034:	e4 01       	movw	r28, r8
		{
			rnd_x = rand()%8; //рандомное значение для координаты X
    1036:	0e 94 66 0e 	call	0x1ccc	; 0x1ccc <rand>
    103a:	8c 01       	movw	r16, r24
			rnd_y = rand()%8; //рандомное значение для координаты Y
    103c:	0e 94 66 0e 	call	0x1ccc	; 0x1ccc <rand>
    1040:	bc 01       	movw	r22, r24
    1042:	67 70       	andi	r22, 0x07	; 7
    1044:	70 78       	andi	r23, 0x80	; 128
    1046:	77 23       	and	r23, r23
    1048:	34 f4       	brge	.+12     	; 0x1056 <effect_rain+0x68>
    104a:	61 50       	subi	r22, 0x01	; 1
    104c:	71 09       	sbc	r23, r1
    104e:	68 6f       	ori	r22, 0xF8	; 248
    1050:	7f 6f       	ori	r23, 0xFF	; 255
    1052:	6f 5f       	subi	r22, 0xFF	; 255
    1054:	7f 4f       	sbci	r23, 0xFF	; 255
	{
		rnd_num = rand()%4;
		
		for (i=0; i < rnd_num; i++)
		{
			rnd_x = rand()%8; //рандомное значение для координаты X
    1056:	c8 01       	movw	r24, r16
    1058:	87 70       	andi	r24, 0x07	; 7
    105a:	90 78       	andi	r25, 0x80	; 128
    105c:	99 23       	and	r25, r25
    105e:	24 f4       	brge	.+8      	; 0x1068 <effect_rain+0x7a>
    1060:	01 97       	sbiw	r24, 0x01	; 1
    1062:	88 6f       	ori	r24, 0xF8	; 248
    1064:	9f 6f       	ori	r25, 0xFF	; 255
    1066:	01 96       	adiw	r24, 0x01	; 1
			rnd_y = rand()%8; //рандомное значение для координаты Y
			setvoxel(rnd_x,rnd_y,7); // образует один слой с рандомными значениями координат
    1068:	47 e0       	ldi	r20, 0x07	; 7
    106a:	50 e0       	ldi	r21, 0x00	; 0
    106c:	0e 94 88 00 	call	0x110	; 0x110 <setvoxel>
	
	for (ii=0; ii<iterations; ii++)
	{
		rnd_num = rand()%4;
		
		for (i=0; i < rnd_num; i++)
    1070:	21 96       	adiw	r28, 0x01	; 1
    1072:	ce 15       	cp	r28, r14
    1074:	df 05       	cpc	r29, r15
    1076:	f9 f6       	brne	.-66     	; 0x1036 <effect_rain+0x48>
			rnd_x = rand()%8; //рандомное значение для координаты X
			rnd_y = rand()%8; //рандомное значение для координаты Y
			setvoxel(rnd_x,rnd_y,7); // образует один слой с рандомными значениями координат
		}
		
		delay_ms(1000); //задержка
    1078:	88 ee       	ldi	r24, 0xE8	; 232
    107a:	93 e0       	ldi	r25, 0x03	; 3
    107c:	0e 94 83 02 	call	0x506	; 0x506 <delay_ms>
		shift(AXIS_Z,-1); // передвигает готовый слой по оси Z
    1080:	6f ef       	ldi	r22, 0xFF	; 255
    1082:	7f ef       	ldi	r23, 0xFF	; 255
    1084:	8a e7       	ldi	r24, 0x7A	; 122
    1086:	0e 94 93 02 	call	0x526	; 0x526 <shift>
	int i, ii;
	int rnd_x;
	int rnd_y;
	int rnd_num;
	
	for (ii=0; ii<iterations; ii++)
    108a:	8f ef       	ldi	r24, 0xFF	; 255
    108c:	c8 1a       	sub	r12, r24
    108e:	d8 0a       	sbc	r13, r24
    1090:	ca 14       	cp	r12, r10
    1092:	db 04       	cpc	r13, r11
    1094:	09 f6       	brne	.-126    	; 0x1018 <effect_rain+0x2a>
		}
		
		delay_ms(1000); //задержка
		shift(AXIS_Z,-1); // передвигает готовый слой по оси Z
	}
}
    1096:	df 91       	pop	r29
    1098:	cf 91       	pop	r28
    109a:	1f 91       	pop	r17
    109c:	0f 91       	pop	r16
    109e:	ff 90       	pop	r15
    10a0:	ef 90       	pop	r14
    10a2:	df 90       	pop	r13
    10a4:	cf 90       	pop	r12
    10a6:	bf 90       	pop	r11
    10a8:	af 90       	pop	r10
    10aa:	9f 90       	pop	r9
    10ac:	8f 90       	pop	r8
    10ae:	08 95       	ret

000010b0 <draw_positions_axis>:
		delay_ms(delay);//задержка
	}
}

void draw_positions_axis (char axis, unsigned char positions[64], int invert)
{
    10b0:	6f 92       	push	r6
    10b2:	7f 92       	push	r7
    10b4:	8f 92       	push	r8
    10b6:	9f 92       	push	r9
    10b8:	af 92       	push	r10
    10ba:	bf 92       	push	r11
    10bc:	cf 92       	push	r12
    10be:	df 92       	push	r13
    10c0:	ef 92       	push	r14
    10c2:	ff 92       	push	r15
    10c4:	1f 93       	push	r17
    10c6:	cf 93       	push	r28
    10c8:	df 93       	push	r29
    10ca:	18 2f       	mov	r17, r24
    10cc:	d6 2f       	mov	r29, r22
    10ce:	c7 2f       	mov	r28, r23
    10d0:	3a 01       	movw	r6, r20
	int x, y, p;
	
	fill(0x00);
    10d2:	80 e0       	ldi	r24, 0x00	; 0
    10d4:	0e 94 53 01 	call	0x2a6	; 0x2a6 <fill>
    10d8:	8d 2e       	mov	r8, r29
    10da:	9c 2e       	mov	r9, r28
	
	for (x=0; x<8; x++)
    10dc:	e1 2c       	mov	r14, r1
    10de:	f1 2c       	mov	r15, r1
		delay_ms(delay);//задержка
	}
}

void draw_positions_axis (char axis, unsigned char positions[64], int invert)
{
    10e0:	a1 2c       	mov	r10, r1
    10e2:	b1 2c       	mov	r11, r1
	{
		for (y=0; y<8; y++)
		{
			if (invert)
			{
				p = (7-positions[(x*8)+y]);
    10e4:	0f 2e       	mov	r0, r31
    10e6:	f7 e0       	ldi	r31, 0x07	; 7
    10e8:	cf 2e       	mov	r12, r31
    10ea:	d1 2c       	mov	r13, r1
    10ec:	f0 2d       	mov	r31, r0
    10ee:	35 c0       	rjmp	.+106    	; 0x115a <draw_positions_axis+0xaa>
	
	for (x=0; x<8; x++)
	{
		for (y=0; y<8; y++)
		{
			if (invert)
    10f0:	61 14       	cp	r6, r1
    10f2:	71 04       	cpc	r7, r1
    10f4:	49 f0       	breq	.+18     	; 0x1108 <draw_positions_axis+0x58>
		draw_positions_axis (axis, positions,invert); 
		delay_ms(delay);//задержка
	}
}

void draw_positions_axis (char axis, unsigned char positions[64], int invert)
    10f6:	f4 01       	movw	r30, r8
    10f8:	ec 0f       	add	r30, r28
    10fa:	fd 1f       	adc	r31, r29
	{
		for (y=0; y<8; y++)
		{
			if (invert)
			{
				p = (7-positions[(x*8)+y]);
    10fc:	80 81       	ld	r24, Z
    10fe:	96 01       	movw	r18, r12
    1100:	28 1b       	sub	r18, r24
    1102:	31 09       	sbc	r19, r1
    1104:	c9 01       	movw	r24, r18
    1106:	05 c0       	rjmp	.+10     	; 0x1112 <draw_positions_axis+0x62>
		draw_positions_axis (axis, positions,invert); 
		delay_ms(delay);//задержка
	}
}

void draw_positions_axis (char axis, unsigned char positions[64], int invert)
    1108:	f4 01       	movw	r30, r8
    110a:	ec 0f       	add	r30, r28
    110c:	fd 1f       	adc	r31, r29
			if (invert)
			{
				p = (7-positions[(x*8)+y]);
			} else
			{
				p = positions[(x*8)+y];
    110e:	80 81       	ld	r24, Z
    1110:	90 e0       	ldi	r25, 0x00	; 0
			}
			
			if (axis == AXIS_Z)
    1112:	1a 37       	cpi	r17, 0x7A	; 122
    1114:	31 f4       	brne	.+12     	; 0x1122 <draw_positions_axis+0x72>
			setvoxel(x,y,p);
    1116:	ac 01       	movw	r20, r24
    1118:	be 01       	movw	r22, r28
    111a:	c7 01       	movw	r24, r14
    111c:	0e 94 88 00 	call	0x110	; 0x110 <setvoxel>
    1120:	0e c0       	rjmp	.+28     	; 0x113e <draw_positions_axis+0x8e>
			
			if (axis == AXIS_Y)
    1122:	19 37       	cpi	r17, 0x79	; 121
    1124:	31 f4       	brne	.+12     	; 0x1132 <draw_positions_axis+0x82>
			setvoxel(x,p,y);
    1126:	ae 01       	movw	r20, r28
    1128:	bc 01       	movw	r22, r24
    112a:	c7 01       	movw	r24, r14
    112c:	0e 94 88 00 	call	0x110	; 0x110 <setvoxel>
    1130:	06 c0       	rjmp	.+12     	; 0x113e <draw_positions_axis+0x8e>
			
			if (axis == AXIS_X)
    1132:	18 37       	cpi	r17, 0x78	; 120
    1134:	21 f4       	brne	.+8      	; 0x113e <draw_positions_axis+0x8e>
			setvoxel(p,y,x);
    1136:	a7 01       	movw	r20, r14
    1138:	be 01       	movw	r22, r28
    113a:	0e 94 88 00 	call	0x110	; 0x110 <setvoxel>
	
	fill(0x00);
	
	for (x=0; x<8; x++)
	{
		for (y=0; y<8; y++)
    113e:	21 96       	adiw	r28, 0x01	; 1
    1140:	c8 30       	cpi	r28, 0x08	; 8
    1142:	d1 05       	cpc	r29, r1
    1144:	a9 f6       	brne	.-86     	; 0x10f0 <draw_positions_axis+0x40>
{
	int x, y, p;
	
	fill(0x00);
	
	for (x=0; x<8; x++)
    1146:	3f ef       	ldi	r19, 0xFF	; 255
    1148:	e3 1a       	sub	r14, r19
    114a:	f3 0a       	sbc	r15, r19
    114c:	88 e0       	ldi	r24, 0x08	; 8
    114e:	88 0e       	add	r8, r24
    1150:	91 1c       	adc	r9, r1
    1152:	28 e0       	ldi	r18, 0x08	; 8
    1154:	e2 16       	cp	r14, r18
    1156:	f1 04       	cpc	r15, r1
    1158:	11 f0       	breq	.+4      	; 0x115e <draw_positions_axis+0xae>
		delay_ms(delay);//задержка
	}
}

void draw_positions_axis (char axis, unsigned char positions[64], int invert)
{
    115a:	e5 01       	movw	r28, r10
    115c:	c9 cf       	rjmp	.-110    	; 0x10f0 <draw_positions_axis+0x40>
			if (axis == AXIS_X)
			setvoxel(p,y,x);
		}
	}
	
}
    115e:	df 91       	pop	r29
    1160:	cf 91       	pop	r28
    1162:	1f 91       	pop	r17
    1164:	ff 90       	pop	r15
    1166:	ef 90       	pop	r14
    1168:	df 90       	pop	r13
    116a:	cf 90       	pop	r12
    116c:	bf 90       	pop	r11
    116e:	af 90       	pop	r10
    1170:	9f 90       	pop	r9
    1172:	8f 90       	pop	r8
    1174:	7f 90       	pop	r7
    1176:	6f 90       	pop	r6
    1178:	08 95       	ret

0000117a <effect_axis_updown_randsuspend>:
	draw_positions_axis (AXIS_Z, positions,0);
}

//11 размазываются стенки куба по всему кубу
void effect_axis_updown_randsuspend (char axis, int delay, int sleep, int invert)
{
    117a:	3f 92       	push	r3
    117c:	4f 92       	push	r4
    117e:	5f 92       	push	r5
    1180:	6f 92       	push	r6
    1182:	7f 92       	push	r7
    1184:	8f 92       	push	r8
    1186:	9f 92       	push	r9
    1188:	af 92       	push	r10
    118a:	bf 92       	push	r11
    118c:	cf 92       	push	r12
    118e:	df 92       	push	r13
    1190:	ef 92       	push	r14
    1192:	ff 92       	push	r15
    1194:	0f 93       	push	r16
    1196:	1f 93       	push	r17
    1198:	cf 93       	push	r28
    119a:	df 93       	push	r29
    119c:	cd b7       	in	r28, 0x3d	; 61
    119e:	de b7       	in	r29, 0x3e	; 62
    11a0:	c6 58       	subi	r28, 0x86	; 134
    11a2:	d1 09       	sbc	r29, r1
    11a4:	0f b6       	in	r0, 0x3f	; 63
    11a6:	f8 94       	cli
    11a8:	de bf       	out	0x3e, r29	; 62
    11aa:	0f be       	out	0x3f, r0	; 63
    11ac:	cd bf       	out	0x3d, r28	; 61
    11ae:	98 2e       	mov	r9, r24
    11b0:	86 2e       	mov	r8, r22
    11b2:	77 2e       	mov	r7, r23
    11b4:	cb 57       	subi	r28, 0x7B	; 123
    11b6:	df 4f       	sbci	r29, 0xFF	; 255
    11b8:	59 83       	std	Y+1, r21	; 0x01
    11ba:	48 83       	st	Y, r20
    11bc:	c5 58       	subi	r28, 0x85	; 133
    11be:	d0 40       	sbci	r29, 0x00	; 0
    11c0:	59 01       	movw	r10, r18
    11c2:	ce 01       	movw	r24, r28
    11c4:	01 96       	adiw	r24, 0x01	; 1
    11c6:	cd 57       	subi	r28, 0x7D	; 125
    11c8:	df 4f       	sbci	r29, 0xFF	; 255
    11ca:	99 83       	std	Y+1, r25	; 0x01
    11cc:	88 83       	st	Y, r24
    11ce:	c3 58       	subi	r28, 0x83	; 131
    11d0:	d0 40       	sbci	r29, 0x00	; 0
    11d2:	de 01       	movw	r26, r28
    11d4:	af 5b       	subi	r26, 0xBF	; 191
    11d6:	bf 4f       	sbci	r27, 0xFF	; 255
    11d8:	cf 57       	subi	r28, 0x7F	; 127
    11da:	df 4f       	sbci	r29, 0xFF	; 255
    11dc:	b9 83       	std	Y+1, r27	; 0x01
    11de:	a8 83       	st	Y, r26
    11e0:	c1 58       	subi	r28, 0x81	; 129
    11e2:	d0 40       	sbci	r29, 0x00	; 0
	
	draw_positions_axis (AXIS_Z, positions,0);
}

//11 размазываются стенки куба по всему кубу
void effect_axis_updown_randsuspend (char axis, int delay, int sleep, int invert)
    11e4:	8d 01       	movw	r16, r26
    11e6:	6d 01       	movw	r12, r26
    11e8:	7c 01       	movw	r14, r24
	int i,px;
	
	// 64 набора случайных позиций
	for (i=0; i<64; i++)
	{
		positions[i] = 0; // установка старовых позиций в 0
    11ea:	f7 01       	movw	r30, r14
    11ec:	11 92       	st	Z+, r1
    11ee:	7f 01       	movw	r14, r30
		destinations[i] = rand()%8; //рандомное значение позиций 
    11f0:	0e 94 66 0e 	call	0x1ccc	; 0x1ccc <rand>
    11f4:	87 70       	andi	r24, 0x07	; 7
    11f6:	90 78       	andi	r25, 0x80	; 128
    11f8:	99 23       	and	r25, r25
    11fa:	24 f4       	brge	.+8      	; 0x1204 <effect_axis_updown_randsuspend+0x8a>
    11fc:	01 97       	sbiw	r24, 0x01	; 1
    11fe:	88 6f       	ori	r24, 0xF8	; 248
    1200:	9f 6f       	ori	r25, 0xFF	; 255
    1202:	01 96       	adiw	r24, 0x01	; 1
    1204:	d6 01       	movw	r26, r12
    1206:	8d 93       	st	X+, r24
    1208:	6d 01       	movw	r12, r26
	unsigned char destinations[64];

	int i,px;
	
	// 64 набора случайных позиций
	for (i=0; i<64; i++)
    120a:	e0 16       	cp	r14, r16
    120c:	f1 06       	cpc	r15, r17
    120e:	69 f7       	brne	.-38     	; 0x11ea <effect_axis_updown_randsuspend+0x70>
    1210:	68 94       	set
    1212:	ee 24       	eor	r14, r14
    1214:	e3 f8       	bld	r14, 3
    1216:	f1 2c       	mov	r15, r1
	
	draw_positions_axis (AXIS_Z, positions,0);
}

//11 размазываются стенки куба по всему кубу
void effect_axis_updown_randsuspend (char axis, int delay, int sleep, int invert)
    1218:	cf 57       	subi	r28, 0x7F	; 127
    121a:	df 4f       	sbci	r29, 0xFF	; 255
    121c:	38 80       	ld	r3, Y
    121e:	c1 58       	subi	r28, 0x81	; 129
    1220:	d0 40       	sbci	r29, 0x00	; 0
    1222:	ce 57       	subi	r28, 0x7E	; 126
    1224:	df 4f       	sbci	r29, 0xFF	; 255
    1226:	48 80       	ld	r4, Y
    1228:	c2 58       	subi	r28, 0x82	; 130
    122a:	d0 40       	sbci	r29, 0x00	; 0
    122c:	cd 57       	subi	r28, 0x7D	; 125
    122e:	df 4f       	sbci	r29, 0xFF	; 255
    1230:	58 80       	ld	r5, Y
    1232:	c3 58       	subi	r28, 0x83	; 131
    1234:	d0 40       	sbci	r29, 0x00	; 0
    1236:	cc 57       	subi	r28, 0x7C	; 124
    1238:	df 4f       	sbci	r29, 0xFF	; 255
    123a:	68 80       	ld	r6, Y
    123c:	c4 58       	subi	r28, 0x84	; 132
    123e:	d0 40       	sbci	r29, 0x00	; 0
				positions[px]++;
			}
		}
		// //обрисовка позиции
		draw_positions_axis (axis, positions,invert);
		delay_ms(delay); //задержка
    1240:	c8 2c       	mov	r12, r8
    1242:	d7 2c       	mov	r13, r7
    1244:	1b c0       	rjmp	.+54     	; 0x127c <effect_axis_updown_randsuspend+0x102>
	for (i=0; i<8; i++)
	{
		// Для каждой итерации, перемещает все позиции на один шаг ближе к месту назначения
		for (px=0; px<64; px++)
		{
			if (positions[px]<destinations[px])
    1246:	80 81       	ld	r24, Z
    1248:	9d 91       	ld	r25, X+
    124a:	89 17       	cp	r24, r25
    124c:	10 f4       	brcc	.+4      	; 0x1252 <effect_axis_updown_randsuspend+0xd8>
			{
				positions[px]++;
    124e:	8f 5f       	subi	r24, 0xFF	; 255
    1250:	80 83       	st	Z, r24
    1252:	31 96       	adiw	r30, 0x01	; 1

	// проход по 8-ми итерациям (по всем слоям)
	for (i=0; i<8; i++)
	{
		// Для каждой итерации, перемещает все позиции на один шаг ближе к месту назначения
		for (px=0; px<64; px++)
    1254:	e0 17       	cp	r30, r16
    1256:	f1 07       	cpc	r31, r17
    1258:	b1 f7       	brne	.-20     	; 0x1246 <effect_axis_updown_randsuspend+0xcc>
			{
				positions[px]++;
			}
		}
		// //обрисовка позиции
		draw_positions_axis (axis, positions,invert);
    125a:	a5 01       	movw	r20, r10
    125c:	be 01       	movw	r22, r28
    125e:	6f 5f       	subi	r22, 0xFF	; 255
    1260:	7f 4f       	sbci	r23, 0xFF	; 255
    1262:	89 2d       	mov	r24, r9
    1264:	0e 94 58 08 	call	0x10b0	; 0x10b0 <draw_positions_axis>
		delay_ms(delay); //задержка
    1268:	8c 2c       	mov	r8, r12
    126a:	7d 2c       	mov	r7, r13
    126c:	8c 2d       	mov	r24, r12
    126e:	9d 2d       	mov	r25, r13
    1270:	0e 94 83 02 	call	0x506	; 0x506 <delay_ms>
    1274:	b1 e0       	ldi	r27, 0x01	; 1
    1276:	eb 1a       	sub	r14, r27
    1278:	f1 08       	sbc	r15, r1
		positions[i] = 0; // установка старовых позиций в 0
		destinations[i] = rand()%8; //рандомное значение позиций 
	}

	// проход по 8-ми итерациям (по всем слоям)
	for (i=0; i<8; i++)
    127a:	29 f0       	breq	.+10     	; 0x1286 <effect_axis_updown_randsuspend+0x10c>
	
	draw_positions_axis (AXIS_Z, positions,0);
}

//11 размазываются стенки куба по всему кубу
void effect_axis_updown_randsuspend (char axis, int delay, int sleep, int invert)
    127c:	a3 2d       	mov	r26, r3
    127e:	b4 2d       	mov	r27, r4
    1280:	e5 2d       	mov	r30, r5
    1282:	f6 2d       	mov	r31, r6
    1284:	e0 cf       	rjmp	.-64     	; 0x1246 <effect_axis_updown_randsuspend+0xcc>
    1286:	ce 01       	movw	r24, r28
    1288:	8f 57       	subi	r24, 0x7F	; 127
    128a:	9f 4f       	sbci	r25, 0xFF	; 255
    128c:	fe 01       	movw	r30, r28
    128e:	ef 5b       	subi	r30, 0xBF	; 191
    1290:	ff 4f       	sbci	r31, 0xFF	; 255
	}
	
	// Назначение всем адресатам занчения 7 (противоположная сторона) 
	for (i=0; i<64; i++)
	{
		destinations[i] = 7;
    1292:	27 e0       	ldi	r18, 0x07	; 7
    1294:	21 93       	st	Z+, r18
		draw_positions_axis (axis, positions,invert);
		delay_ms(delay); //задержка
	}
	
	// Назначение всем адресатам занчения 7 (противоположная сторона) 
	for (i=0; i<64; i++)
    1296:	e8 17       	cp	r30, r24
    1298:	f9 07       	cpc	r31, r25
    129a:	e1 f7       	brne	.-8      	; 0x1294 <effect_axis_updown_randsuspend+0x11a>
	{
		destinations[i] = 7;
	}
	
	//задержка позиции
	delay_ms(sleep);
    129c:	cb 57       	subi	r28, 0x7B	; 123
    129e:	df 4f       	sbci	r29, 0xFF	; 255
    12a0:	88 81       	ld	r24, Y
    12a2:	99 81       	ldd	r25, Y+1	; 0x01
    12a4:	c5 58       	subi	r28, 0x85	; 133
    12a6:	d0 40       	sbci	r29, 0x00	; 0
    12a8:	0e 94 83 02 	call	0x506	; 0x506 <delay_ms>
    12ac:	68 94       	set
    12ae:	ee 24       	eor	r14, r14
    12b0:	e3 f8       	bld	r14, 3
    12b2:	f1 2c       	mov	r15, r1
	
	draw_positions_axis (AXIS_Z, positions,0);
}

//11 размазываются стенки куба по всему кубу
void effect_axis_updown_randsuspend (char axis, int delay, int sleep, int invert)
    12b4:	cf 57       	subi	r28, 0x7F	; 127
    12b6:	df 4f       	sbci	r29, 0xFF	; 255
    12b8:	c8 80       	ld	r12, Y
    12ba:	c1 58       	subi	r28, 0x81	; 129
    12bc:	d0 40       	sbci	r29, 0x00	; 0
    12be:	ce 57       	subi	r28, 0x7E	; 126
    12c0:	df 4f       	sbci	r29, 0xFF	; 255
    12c2:	68 80       	ld	r6, Y
    12c4:	c2 58       	subi	r28, 0x82	; 130
    12c6:	d0 40       	sbci	r29, 0x00	; 0
    12c8:	cd 57       	subi	r28, 0x7D	; 125
    12ca:	df 4f       	sbci	r29, 0xFF	; 255
    12cc:	58 80       	ld	r5, Y
    12ce:	c3 58       	subi	r28, 0x83	; 131
    12d0:	d0 40       	sbci	r29, 0x00	; 0
    12d2:	cc 57       	subi	r28, 0x7C	; 124
    12d4:	df 4f       	sbci	r29, 0xFF	; 255
    12d6:	d8 80       	ld	r13, Y
    12d8:	c4 58       	subi	r28, 0x84	; 132
    12da:	d0 40       	sbci	r29, 0x00	; 0
    12dc:	22 c0       	rjmp	.+68     	; 0x1322 <effect_axis_updown_randsuspend+0x1a8>
    12de:	af 01       	movw	r20, r30
	// Затем делает тоже самое ещё раз
	for (i=0; i<8; i++)
	{
		for (px=0; px<64; px++)
		{
			if (positions[px]<destinations[px])
    12e0:	30 81       	ld	r19, Z
    12e2:	dc 01       	movw	r26, r24
    12e4:	2d 91       	ld	r18, X+
    12e6:	cd 01       	movw	r24, r26
    12e8:	32 17       	cp	r19, r18
    12ea:	10 f4       	brcc	.+4      	; 0x12f0 <effect_axis_updown_randsuspend+0x176>
			{
				positions[px]++;
    12ec:	3f 5f       	subi	r19, 0xFF	; 255
    12ee:	30 83       	st	Z, r19
			}
			if (positions[px]>destinations[px])
    12f0:	da 01       	movw	r26, r20
    12f2:	3c 91       	ld	r19, X
    12f4:	23 17       	cp	r18, r19
    12f6:	10 f4       	brcc	.+4      	; 0x12fc <effect_axis_updown_randsuspend+0x182>
			{
				positions[px]--;
    12f8:	31 50       	subi	r19, 0x01	; 1
    12fa:	3c 93       	st	X, r19
    12fc:	31 96       	adiw	r30, 0x01	; 1
	delay_ms(sleep);
	
	// Затем делает тоже самое ещё раз
	for (i=0; i<8; i++)
	{
		for (px=0; px<64; px++)
    12fe:	e0 17       	cp	r30, r16
    1300:	f1 07       	cpc	r31, r17
    1302:	69 f7       	brne	.-38     	; 0x12de <effect_axis_updown_randsuspend+0x164>
			{
				positions[px]--;
			}
		}
		//обрисовка позиции
		draw_positions_axis (axis, positions,invert); 
    1304:	a5 01       	movw	r20, r10
    1306:	be 01       	movw	r22, r28
    1308:	6f 5f       	subi	r22, 0xFF	; 255
    130a:	7f 4f       	sbci	r23, 0xFF	; 255
    130c:	89 2d       	mov	r24, r9
    130e:	0e 94 58 08 	call	0x10b0	; 0x10b0 <draw_positions_axis>
		delay_ms(delay);//задержка
    1312:	88 2d       	mov	r24, r8
    1314:	97 2d       	mov	r25, r7
    1316:	0e 94 83 02 	call	0x506	; 0x506 <delay_ms>
    131a:	b1 e0       	ldi	r27, 0x01	; 1
    131c:	eb 1a       	sub	r14, r27
    131e:	f1 08       	sbc	r15, r1
	
	//задержка позиции
	delay_ms(sleep);
	
	// Затем делает тоже самое ещё раз
	for (i=0; i<8; i++)
    1320:	29 f0       	breq	.+10     	; 0x132c <effect_axis_updown_randsuspend+0x1b2>
	
	draw_positions_axis (AXIS_Z, positions,0);
}

//11 размазываются стенки куба по всему кубу
void effect_axis_updown_randsuspend (char axis, int delay, int sleep, int invert)
    1322:	8c 2d       	mov	r24, r12
    1324:	96 2d       	mov	r25, r6
    1326:	e5 2d       	mov	r30, r5
    1328:	fd 2d       	mov	r31, r13
    132a:	d9 cf       	rjmp	.-78     	; 0x12de <effect_axis_updown_randsuspend+0x164>
		}
		//обрисовка позиции
		draw_positions_axis (axis, positions,invert); 
		delay_ms(delay);//задержка
	}
}
    132c:	ca 57       	subi	r28, 0x7A	; 122
    132e:	df 4f       	sbci	r29, 0xFF	; 255
    1330:	0f b6       	in	r0, 0x3f	; 63
    1332:	f8 94       	cli
    1334:	de bf       	out	0x3e, r29	; 62
    1336:	0f be       	out	0x3f, r0	; 63
    1338:	cd bf       	out	0x3d, r28	; 61
    133a:	df 91       	pop	r29
    133c:	cf 91       	pop	r28
    133e:	1f 91       	pop	r17
    1340:	0f 91       	pop	r16
    1342:	ff 90       	pop	r15
    1344:	ef 90       	pop	r14
    1346:	df 90       	pop	r13
    1348:	cf 90       	pop	r12
    134a:	bf 90       	pop	r11
    134c:	af 90       	pop	r10
    134e:	9f 90       	pop	r9
    1350:	8f 90       	pop	r8
    1352:	7f 90       	pop	r7
    1354:	6f 90       	pop	r6
    1356:	5f 90       	pop	r5
    1358:	4f 90       	pop	r4
    135a:	3f 90       	pop	r3
    135c:	08 95       	ret

0000135e <effect_z_updown_move>:
	}

}

void effect_z_updown_move (unsigned char positions[64], unsigned char destinations[64], char axis)
{
    135e:	0f 93       	push	r16
    1360:	1f 93       	push	r17
    1362:	cf 93       	push	r28
    1364:	df 93       	push	r29
    1366:	e8 2f       	mov	r30, r24
    1368:	f9 2f       	mov	r31, r25
    136a:	a6 2f       	mov	r26, r22
    136c:	b7 2f       	mov	r27, r23
	int px;
	for (px=0; px<64; px++)
    136e:	20 e0       	ldi	r18, 0x00	; 0
    1370:	30 e0       	ldi	r19, 0x00	; 0
		
	}

}

void effect_z_updown_move (unsigned char positions[64], unsigned char destinations[64], char axis)
    1372:	bf 01       	movw	r22, r30
{
	int px;
	for (px=0; px<64; px++)
	{
		if (positions[px]<destinations[px])
    1374:	10 81       	ld	r17, Z
		
	}

}

void effect_z_updown_move (unsigned char positions[64], unsigned char destinations[64], char axis)
    1376:	ad 01       	movw	r20, r26
{
	int px;
	for (px=0; px<64; px++)
	{
		if (positions[px]<destinations[px])
    1378:	0c 91       	ld	r16, X
    137a:	10 17       	cp	r17, r16
    137c:	10 f4       	brcc	.+4      	; 0x1382 <effect_z_updown_move+0x24>
		{
			positions[px]++;
    137e:	1f 5f       	subi	r17, 0xFF	; 255
    1380:	10 83       	st	Z, r17
		}
		if (positions[px]>destinations[px])
    1382:	eb 01       	movw	r28, r22
    1384:	18 81       	ld	r17, Y
    1386:	11 96       	adiw	r26, 0x01	; 1
    1388:	ea 01       	movw	r28, r20
    138a:	48 81       	ld	r20, Y
    138c:	41 17       	cp	r20, r17
    138e:	18 f4       	brcc	.+6      	; 0x1396 <effect_z_updown_move+0x38>
		{
			positions[px]--;
    1390:	11 50       	subi	r17, 0x01	; 1
    1392:	eb 01       	movw	r28, r22
    1394:	18 83       	st	Y, r17
}

void effect_z_updown_move (unsigned char positions[64], unsigned char destinations[64], char axis)
{
	int px;
	for (px=0; px<64; px++)
    1396:	2f 5f       	subi	r18, 0xFF	; 255
    1398:	3f 4f       	sbci	r19, 0xFF	; 255
    139a:	31 96       	adiw	r30, 0x01	; 1
    139c:	20 34       	cpi	r18, 0x40	; 64
    139e:	31 05       	cpc	r19, r1
    13a0:	41 f7       	brne	.-48     	; 0x1372 <effect_z_updown_move+0x14>
		{
			positions[px]--;
		}
	}
	
	draw_positions_axis (AXIS_Z, positions,0);
    13a2:	40 e0       	ldi	r20, 0x00	; 0
    13a4:	50 e0       	ldi	r21, 0x00	; 0
    13a6:	68 2f       	mov	r22, r24
    13a8:	79 2f       	mov	r23, r25
    13aa:	8a e7       	ldi	r24, 0x7A	; 122
    13ac:	0e 94 58 08 	call	0x10b0	; 0x10b0 <draw_positions_axis>
}
    13b0:	df 91       	pop	r29
    13b2:	cf 91       	pop	r28
    13b4:	1f 91       	pop	r17
    13b6:	0f 91       	pop	r16
    13b8:	08 95       	ret

000013ba <effect_z_updown>:
	}
}

//10 передвижение группы вокселей вверх/вниз (похож на дождь)
void effect_z_updown (int iterations, int delay)
{
    13ba:	2f 92       	push	r2
    13bc:	3f 92       	push	r3
    13be:	4f 92       	push	r4
    13c0:	5f 92       	push	r5
    13c2:	6f 92       	push	r6
    13c4:	7f 92       	push	r7
    13c6:	8f 92       	push	r8
    13c8:	9f 92       	push	r9
    13ca:	af 92       	push	r10
    13cc:	bf 92       	push	r11
    13ce:	cf 92       	push	r12
    13d0:	df 92       	push	r13
    13d2:	ef 92       	push	r14
    13d4:	ff 92       	push	r15
    13d6:	0f 93       	push	r16
    13d8:	1f 93       	push	r17
    13da:	cf 93       	push	r28
    13dc:	df 93       	push	r29
    13de:	cd b7       	in	r28, 0x3d	; 61
    13e0:	de b7       	in	r29, 0x3e	; 62
    13e2:	c0 58       	subi	r28, 0x80	; 128
    13e4:	d1 09       	sbc	r29, r1
    13e6:	0f b6       	in	r0, 0x3f	; 63
    13e8:	f8 94       	cli
    13ea:	de bf       	out	0x3e, r29	; 62
    13ec:	0f be       	out	0x3f, r0	; 63
    13ee:	cd bf       	out	0x3d, r28	; 61
    13f0:	4c 01       	movw	r8, r24
    13f2:	1b 01       	movw	r2, r22
    13f4:	8e 01       	movw	r16, r28
    13f6:	0f 5f       	subi	r16, 0xFF	; 255
    13f8:	1f 4f       	sbci	r17, 0xFF	; 255
    13fa:	7e 01       	movw	r14, r28
    13fc:	21 e4       	ldi	r18, 0x41	; 65
    13fe:	e2 0e       	add	r14, r18
    1400:	f1 1c       	adc	r15, r1
		shift(AXIS_Z,-1); // передвигает готовый слой по оси Z
	}
}

//10 передвижение группы вокселей вверх/вниз (похож на дождь)
void effect_z_updown (int iterations, int delay)
    1402:	67 01       	movw	r12, r14

	int i,y,move;
	
	for (i=0; i<64; i++)
	{
		positions[i] = 4;
    1404:	68 94       	set
    1406:	bb 24       	eor	r11, r11
    1408:	b2 f8       	bld	r11, 2
    140a:	f8 01       	movw	r30, r16
    140c:	b1 92       	st	Z+, r11
    140e:	8f 01       	movw	r16, r30
		destinations[i] = rand()%8;
    1410:	0e 94 66 0e 	call	0x1ccc	; 0x1ccc <rand>
    1414:	87 70       	andi	r24, 0x07	; 7
    1416:	90 78       	andi	r25, 0x80	; 128
    1418:	99 23       	and	r25, r25
    141a:	24 f4       	brge	.+8      	; 0x1424 <effect_z_updown+0x6a>
    141c:	01 97       	sbiw	r24, 0x01	; 1
    141e:	88 6f       	ori	r24, 0xF8	; 248
    1420:	9f 6f       	ori	r25, 0xFF	; 255
    1422:	01 96       	adiw	r24, 0x01	; 1
    1424:	f7 01       	movw	r30, r14
    1426:	81 93       	st	Z+, r24
    1428:	7f 01       	movw	r14, r30
	unsigned char positions[64];
	unsigned char destinations[64];

	int i,y,move;
	
	for (i=0; i<64; i++)
    142a:	0c 15       	cp	r16, r12
    142c:	1d 05       	cpc	r17, r13
    142e:	69 f7       	brne	.-38     	; 0x140a <effect_z_updown+0x50>
    1430:	08 e0       	ldi	r16, 0x08	; 8
    1432:	10 e0       	ldi	r17, 0x00	; 0
	}

	for (i=0; i<8; i++)
	{
		effect_z_updown_move(positions, destinations, AXIS_Z);
		delay_ms(delay);
    1434:	e2 2c       	mov	r14, r2
    1436:	f3 2c       	mov	r15, r3
		destinations[i] = rand()%8;
	}

	for (i=0; i<8; i++)
	{
		effect_z_updown_move(positions, destinations, AXIS_Z);
    1438:	4a e7       	ldi	r20, 0x7A	; 122
    143a:	be 01       	movw	r22, r28
    143c:	6f 5b       	subi	r22, 0xBF	; 191
    143e:	7f 4f       	sbci	r23, 0xFF	; 255
    1440:	ce 01       	movw	r24, r28
    1442:	01 96       	adiw	r24, 0x01	; 1
    1444:	0e 94 af 09 	call	0x135e	; 0x135e <effect_z_updown_move>
		delay_ms(delay);
    1448:	7e 2c       	mov	r7, r14
    144a:	6f 2c       	mov	r6, r15
    144c:	8e 2d       	mov	r24, r14
    144e:	9f 2d       	mov	r25, r15
    1450:	0e 94 83 02 	call	0x506	; 0x506 <delay_ms>
    1454:	01 50       	subi	r16, 0x01	; 1
    1456:	11 09       	sbc	r17, r1
	{
		positions[i] = 4;
		destinations[i] = rand()%8;
	}

	for (i=0; i<8; i++)
    1458:	79 f7       	brne	.-34     	; 0x1438 <effect_z_updown+0x7e>
	{
		effect_z_updown_move(positions, destinations, AXIS_Z);
		delay_ms(delay);
	}
	
	for (i=0;i<iterations;i++)
    145a:	18 14       	cp	r1, r8
    145c:	19 04       	cpc	r1, r9
    145e:	0c f0       	brlt	.+2      	; 0x1462 <effect_z_updown+0xa8>
    1460:	4d c0       	rjmp	.+154    	; 0x14fc <effect_z_updown+0x142>
		{
			effect_z_updown_move(positions, destinations, AXIS_Z);
			delay_ms(delay);
		}

		delay_ms(delay*4);
    1462:	22 0c       	add	r2, r2
    1464:	33 1c       	adc	r3, r3
    1466:	22 0c       	add	r2, r2
    1468:	33 1c       	adc	r3, r3
    146a:	a1 2c       	mov	r10, r1
    146c:	b1 2c       	mov	r11, r1
	
	for (i=0;i<iterations;i++)
	{
		for (move=0;move<8;move++)
		{
			effect_z_updown_move(positions, destinations, AXIS_Z);
    146e:	6e 01       	movw	r12, r28
    1470:	f1 e4       	ldi	r31, 0x41	; 65
    1472:	cf 0e       	add	r12, r31
    1474:	d1 1c       	adc	r13, r1
    1476:	4c 2c       	mov	r4, r12
    1478:	5d 2c       	mov	r5, r13
    147a:	3d c0       	rjmp	.+122    	; 0x14f6 <effect_z_updown+0x13c>
    147c:	4a e7       	ldi	r20, 0x7A	; 122
    147e:	64 2d       	mov	r22, r4
    1480:	75 2d       	mov	r23, r5
    1482:	ce 01       	movw	r24, r28
    1484:	01 96       	adiw	r24, 0x01	; 1
    1486:	0e 94 af 09 	call	0x135e	; 0x135e <effect_z_updown_move>
			delay_ms(delay);
    148a:	87 2d       	mov	r24, r7
    148c:	96 2d       	mov	r25, r6
    148e:	0e 94 83 02 	call	0x506	; 0x506 <delay_ms>
    1492:	01 50       	subi	r16, 0x01	; 1
    1494:	11 09       	sbc	r17, r1
		delay_ms(delay);
	}
	
	for (i=0;i<iterations;i++)
	{
		for (move=0;move<8;move++)
    1496:	91 f7       	brne	.-28     	; 0x147c <effect_z_updown+0xc2>
		{
			effect_z_updown_move(positions, destinations, AXIS_Z);
			delay_ms(delay);
		}

		delay_ms(delay*4);
    1498:	c1 01       	movw	r24, r2
    149a:	0e 94 83 02 	call	0x506	; 0x506 <delay_ms>
    149e:	00 e2       	ldi	r16, 0x20	; 32
    14a0:	10 e0       	ldi	r17, 0x00	; 0


		for (y=0;y<32;y++)
		{
			destinations[rand()%64] = rand()%8;
    14a2:	0e 94 66 0e 	call	0x1ccc	; 0x1ccc <rand>
    14a6:	7c 01       	movw	r14, r24
    14a8:	0e 94 66 0e 	call	0x1ccc	; 0x1ccc <rand>
    14ac:	2f e3       	ldi	r18, 0x3F	; 63
    14ae:	e2 22       	and	r14, r18
    14b0:	20 e8       	ldi	r18, 0x80	; 128
    14b2:	f2 22       	and	r15, r18
    14b4:	ff 20       	and	r15, r15
    14b6:	54 f4       	brge	.+20     	; 0x14cc <effect_z_updown+0x112>
    14b8:	e1 e0       	ldi	r30, 0x01	; 1
    14ba:	ee 1a       	sub	r14, r30
    14bc:	f1 08       	sbc	r15, r1
    14be:	f0 ec       	ldi	r31, 0xC0	; 192
    14c0:	ef 2a       	or	r14, r31
    14c2:	ff 24       	eor	r15, r15
    14c4:	fa 94       	dec	r15
    14c6:	2f ef       	ldi	r18, 0xFF	; 255
    14c8:	e2 1a       	sub	r14, r18
    14ca:	f2 0a       	sbc	r15, r18
    14cc:	f6 01       	movw	r30, r12
    14ce:	ee 0d       	add	r30, r14
    14d0:	ff 1d       	adc	r31, r15
    14d2:	87 70       	andi	r24, 0x07	; 7
    14d4:	90 78       	andi	r25, 0x80	; 128
    14d6:	99 23       	and	r25, r25
    14d8:	24 f4       	brge	.+8      	; 0x14e2 <effect_z_updown+0x128>
    14da:	01 97       	sbiw	r24, 0x01	; 1
    14dc:	88 6f       	ori	r24, 0xF8	; 248
    14de:	9f 6f       	ori	r25, 0xFF	; 255
    14e0:	01 96       	adiw	r24, 0x01	; 1
    14e2:	80 83       	st	Z, r24
    14e4:	01 50       	subi	r16, 0x01	; 1
    14e6:	11 09       	sbc	r17, r1
		}

		delay_ms(delay*4);


		for (y=0;y<32;y++)
    14e8:	e1 f6       	brne	.-72     	; 0x14a2 <effect_z_updown+0xe8>
	{
		effect_z_updown_move(positions, destinations, AXIS_Z);
		delay_ms(delay);
	}
	
	for (i=0;i<iterations;i++)
    14ea:	8f ef       	ldi	r24, 0xFF	; 255
    14ec:	a8 1a       	sub	r10, r24
    14ee:	b8 0a       	sbc	r11, r24
    14f0:	a8 14       	cp	r10, r8
    14f2:	b9 04       	cpc	r11, r9
    14f4:	19 f0       	breq	.+6      	; 0x14fc <effect_z_updown+0x142>
	unsigned char positions[64];
	unsigned char destinations[64];

	int i,y,move;
	
	for (i=0; i<64; i++)
    14f6:	08 e0       	ldi	r16, 0x08	; 8
    14f8:	10 e0       	ldi	r17, 0x00	; 0
    14fa:	c0 cf       	rjmp	.-128    	; 0x147c <effect_z_updown+0xc2>
			destinations[rand()%64] = rand()%8;
		}
		
	}

}
    14fc:	c0 58       	subi	r28, 0x80	; 128
    14fe:	df 4f       	sbci	r29, 0xFF	; 255
    1500:	0f b6       	in	r0, 0x3f	; 63
    1502:	f8 94       	cli
    1504:	de bf       	out	0x3e, r29	; 62
    1506:	0f be       	out	0x3f, r0	; 63
    1508:	cd bf       	out	0x3d, r28	; 61
    150a:	df 91       	pop	r29
    150c:	cf 91       	pop	r28
    150e:	1f 91       	pop	r17
    1510:	0f 91       	pop	r16
    1512:	ff 90       	pop	r15
    1514:	ef 90       	pop	r14
    1516:	df 90       	pop	r13
    1518:	cf 90       	pop	r12
    151a:	bf 90       	pop	r11
    151c:	af 90       	pop	r10
    151e:	9f 90       	pop	r9
    1520:	8f 90       	pop	r8
    1522:	7f 90       	pop	r7
    1524:	6f 90       	pop	r6
    1526:	5f 90       	pop	r5
    1528:	4f 90       	pop	r4
    152a:	3f 90       	pop	r3
    152c:	2f 90       	pop	r2
    152e:	08 95       	ret

00001530 <effect_wormsqueeze>:
	}
}

// 14 эффект "смерч"
void effect_wormsqueeze (int size, int axis, int direction, int iterations, int delay)
{
    1530:	2f 92       	push	r2
    1532:	3f 92       	push	r3
    1534:	4f 92       	push	r4
    1536:	5f 92       	push	r5
    1538:	6f 92       	push	r6
    153a:	7f 92       	push	r7
    153c:	8f 92       	push	r8
    153e:	9f 92       	push	r9
    1540:	af 92       	push	r10
    1542:	bf 92       	push	r11
    1544:	cf 92       	push	r12
    1546:	df 92       	push	r13
    1548:	ef 92       	push	r14
    154a:	ff 92       	push	r15
    154c:	0f 93       	push	r16
    154e:	1f 93       	push	r17
    1550:	cf 93       	push	r28
    1552:	df 93       	push	r29
    1554:	cd b7       	in	r28, 0x3d	; 61
    1556:	de b7       	in	r29, 0x3e	; 62
    1558:	66 97       	sbiw	r28, 0x16	; 22
    155a:	0f b6       	in	r0, 0x3f	; 63
    155c:	f8 94       	cli
    155e:	de bf       	out	0x3e, r29	; 62
    1560:	0f be       	out	0x3f, r0	; 63
    1562:	cd bf       	out	0x3d, r28	; 61
    1564:	9a 87       	std	Y+10, r25	; 0x0a
    1566:	89 87       	std	Y+9, r24	; 0x09
    1568:	1b 01       	movw	r2, r22
    156a:	5e 87       	std	Y+14, r21	; 0x0e
    156c:	4d 87       	std	Y+13, r20	; 0x0d
    156e:	38 8b       	std	Y+16, r19	; 0x10
    1570:	2f 87       	std	Y+15, r18	; 0x0f
    1572:	1a 8b       	std	Y+18, r17	; 0x12
    1574:	09 8b       	std	Y+17, r16	; 0x11
	int x, y, i,j,k, dx, dy;
	int cube_size;
	int origin = 0;
	
	if (direction == -1)
    1576:	4f 3f       	cpi	r20, 0xFF	; 255
    1578:	5f 4f       	sbci	r21, 0xFF	; 255
    157a:	19 f0       	breq	.+6      	; 0x1582 <effect_wormsqueeze+0x52>
// 14 эффект "смерч"
void effect_wormsqueeze (int size, int axis, int direction, int iterations, int delay)
{
	int x, y, i,j,k, dx, dy;
	int cube_size;
	int origin = 0;
    157c:	81 2c       	mov	r8, r1
    157e:	91 2c       	mov	r9, r1
    1580:	05 c0       	rjmp	.+10     	; 0x158c <effect_wormsqueeze+0x5c>
	
	if (direction == -1)
	origin = 7;
    1582:	0f 2e       	mov	r0, r31
    1584:	f7 e0       	ldi	r31, 0x07	; 7
    1586:	8f 2e       	mov	r8, r31
    1588:	91 2c       	mov	r9, r1
    158a:	f0 2d       	mov	r31, r0
	
	cube_size = 8-(size-1);
    158c:	89 e0       	ldi	r24, 0x09	; 9
    158e:	90 e0       	ldi	r25, 0x00	; 0
    1590:	ac 01       	movw	r20, r24
    1592:	a9 85       	ldd	r26, Y+9	; 0x09
    1594:	ba 85       	ldd	r27, Y+10	; 0x0a
    1596:	4a 1b       	sub	r20, r26
    1598:	5b 0b       	sbc	r21, r27
    159a:	5c 87       	std	Y+12, r21	; 0x0c
    159c:	4b 87       	std	Y+11, r20	; 0x0b
	
	x = rand()%cube_size;
    159e:	0e 94 66 0e 	call	0x1ccc	; 0x1ccc <rand>
    15a2:	6b 85       	ldd	r22, Y+11	; 0x0b
    15a4:	7c 85       	ldd	r23, Y+12	; 0x0c
    15a6:	0e 94 ed 0d 	call	0x1bda	; 0x1bda <__divmodhi4>
    15aa:	9c 83       	std	Y+4, r25	; 0x04
    15ac:	8b 83       	std	Y+3, r24	; 0x03
	y = rand()%cube_size;
    15ae:	0e 94 66 0e 	call	0x1ccc	; 0x1ccc <rand>
    15b2:	6b 85       	ldd	r22, Y+11	; 0x0b
    15b4:	7c 85       	ldd	r23, Y+12	; 0x0c
    15b6:	0e 94 ed 0d 	call	0x1bda	; 0x1bda <__divmodhi4>
    15ba:	9e 83       	std	Y+6, r25	; 0x06
    15bc:	8d 83       	std	Y+5, r24	; 0x05
	
	for (i=0; i<iterations; i++)
    15be:	ef 85       	ldd	r30, Y+15	; 0x0f
    15c0:	f8 89       	ldd	r31, Y+16	; 0x10
    15c2:	1e 16       	cp	r1, r30
    15c4:	1f 06       	cpc	r1, r31
    15c6:	0c f0       	brlt	.+2      	; 0x15ca <effect_wormsqueeze+0x9a>
    15c8:	9c c0       	rjmp	.+312    	; 0x1702 <effect_wormsqueeze+0x1d2>
    15ca:	18 86       	std	Y+8, r1	; 0x08
    15cc:	1f 82       	std	Y+7, r1	; 0x07
		}
	}
}

// 14 эффект "смерч"
void effect_wormsqueeze (int size, int axis, int direction, int iterations, int delay)
    15ce:	29 85       	ldd	r18, Y+9	; 0x09
    15d0:	3a 85       	ldd	r19, Y+10	; 0x0a
    15d2:	3c 8b       	std	Y+20, r19	; 0x14
    15d4:	2b 8b       	std	Y+19, r18	; 0x13
	x = rand()%cube_size;
	y = rand()%cube_size;
	
	for (i=0; i<iterations; i++)
	{
		dx = ((rand()%3)-1);
    15d6:	0e 94 66 0e 	call	0x1ccc	; 0x1ccc <rand>
    15da:	8c 01       	movw	r16, r24
		dy = ((rand()%3)-1);
    15dc:	0e 94 66 0e 	call	0x1ccc	; 0x1ccc <rand>
    15e0:	63 e0       	ldi	r22, 0x03	; 3
    15e2:	70 e0       	ldi	r23, 0x00	; 0
    15e4:	0e 94 ed 0d 	call	0x1bda	; 0x1bda <__divmodhi4>
    15e8:	fc 01       	movw	r30, r24
    15ea:	31 97       	sbiw	r30, 0x01	; 1
	x = rand()%cube_size;
	y = rand()%cube_size;
	
	for (i=0; i<iterations; i++)
	{
		dx = ((rand()%3)-1);
    15ec:	c8 01       	movw	r24, r16
    15ee:	63 e0       	ldi	r22, 0x03	; 3
    15f0:	70 e0       	ldi	r23, 0x00	; 0
    15f2:	0e 94 ed 0d 	call	0x1bda	; 0x1bda <__divmodhi4>
    15f6:	9c 01       	movw	r18, r24
    15f8:	21 50       	subi	r18, 0x01	; 1
    15fa:	31 09       	sbc	r19, r1
		dy = ((rand()%3)-1);
		
		if ((x+dx) > 0 && (x+dx) < cube_size)
    15fc:	4b 81       	ldd	r20, Y+3	; 0x03
    15fe:	5c 81       	ldd	r21, Y+4	; 0x04
    1600:	24 0f       	add	r18, r20
    1602:	35 1f       	adc	r19, r21
    1604:	12 16       	cp	r1, r18
    1606:	13 06       	cpc	r1, r19
    1608:	3c f4       	brge	.+14     	; 0x1618 <effect_wormsqueeze+0xe8>
    160a:	8b 85       	ldd	r24, Y+11	; 0x0b
    160c:	9c 85       	ldd	r25, Y+12	; 0x0c
    160e:	28 17       	cp	r18, r24
    1610:	39 07       	cpc	r19, r25
    1612:	14 f4       	brge	.+4      	; 0x1618 <effect_wormsqueeze+0xe8>
		x += dx;
    1614:	3c 83       	std	Y+4, r19	; 0x04
    1616:	2b 83       	std	Y+3, r18	; 0x03
		
		if ((y+dy) > 0 && (y+dy) < cube_size)
    1618:	8d 81       	ldd	r24, Y+5	; 0x05
    161a:	9e 81       	ldd	r25, Y+6	; 0x06
    161c:	8e 0f       	add	r24, r30
    161e:	9f 1f       	adc	r25, r31
    1620:	18 16       	cp	r1, r24
    1622:	19 06       	cpc	r1, r25
    1624:	3c f4       	brge	.+14     	; 0x1634 <effect_wormsqueeze+0x104>
    1626:	ab 85       	ldd	r26, Y+11	; 0x0b
    1628:	bc 85       	ldd	r27, Y+12	; 0x0c
    162a:	8a 17       	cp	r24, r26
    162c:	9b 07       	cpc	r25, r27
    162e:	14 f4       	brge	.+4      	; 0x1634 <effect_wormsqueeze+0x104>
		y += dy;
    1630:	9e 83       	std	Y+6, r25	; 0x06
    1632:	8d 83       	std	Y+5, r24	; 0x05
		
		shift(axis, direction);
    1634:	6d 85       	ldd	r22, Y+13	; 0x0d
    1636:	7e 85       	ldd	r23, Y+14	; 0x0e
    1638:	82 2d       	mov	r24, r2
    163a:	0e 94 93 02 	call	0x526	; 0x526 <shift>
		

		for (j=0; j<size;j++)
    163e:	e9 85       	ldd	r30, Y+9	; 0x09
    1640:	fa 85       	ldd	r31, Y+10	; 0x0a
    1642:	1e 16       	cp	r1, r30
    1644:	1f 06       	cpc	r1, r31
    1646:	0c f0       	brlt	.+2      	; 0x164a <effect_wormsqueeze+0x11a>
    1648:	4d c0       	rjmp	.+154    	; 0x16e4 <effect_wormsqueeze+0x1b4>
    164a:	8b 81       	ldd	r24, Y+3	; 0x03
    164c:	9c 81       	ldd	r25, Y+4	; 0x04
		}
	}
}

// 14 эффект "смерч"
void effect_wormsqueeze (int size, int axis, int direction, int iterations, int delay)
    164e:	2f 01       	movw	r4, r30
    1650:	48 0e       	add	r4, r24
    1652:	59 1e       	adc	r5, r25
    1654:	7c 01       	movw	r14, r24
    1656:	6d 80       	ldd	r6, Y+5	; 0x05
    1658:	7e 80       	ldd	r7, Y+6	; 0x06
    165a:	83 01       	movw	r16, r6
    165c:	2b 89       	ldd	r18, Y+19	; 0x13
    165e:	3c 89       	ldd	r19, Y+20	; 0x14
    1660:	02 0f       	add	r16, r18
    1662:	13 1f       	adc	r17, r19
    1664:	5c 01       	movw	r10, r24
    1666:	a6 18       	sub	r10, r6
    1668:	b7 08       	sbc	r11, r7
    166a:	a3 01       	movw	r20, r6
    166c:	48 1b       	sub	r20, r24
    166e:	59 0b       	sbc	r21, r25
    1670:	5a 83       	std	Y+2, r21	; 0x02
    1672:	49 83       	std	Y+1, r20	; 0x01
    1674:	30 c0       	rjmp	.+96     	; 0x16d6 <effect_wormsqueeze+0x1a6>

		for (j=0; j<size;j++)
		{
			for (k=0; k<size;k++)
			{
				if (axis == AXIS_Z)
    1676:	5a e7       	ldi	r21, 0x7A	; 122
    1678:	25 16       	cp	r2, r21
    167a:	31 04       	cpc	r3, r1
    167c:	39 f4       	brne	.+14     	; 0x168c <effect_wormsqueeze+0x15c>
				setvoxel(x+j,y+k,origin);
    167e:	a4 01       	movw	r20, r8
    1680:	6d 89       	ldd	r22, Y+21	; 0x15
    1682:	7e 89       	ldd	r23, Y+22	; 0x16
    1684:	c7 01       	movw	r24, r14
    1686:	0e 94 88 00 	call	0x110	; 0x110 <setvoxel>
    168a:	17 c0       	rjmp	.+46     	; 0x16ba <effect_wormsqueeze+0x18a>
				
				if (axis == AXIS_Y)
    168c:	89 e7       	ldi	r24, 0x79	; 121
    168e:	28 16       	cp	r2, r24
    1690:	31 04       	cpc	r3, r1
    1692:	39 f4       	brne	.+14     	; 0x16a2 <effect_wormsqueeze+0x172>
				setvoxel(x+j,origin,y+k);
    1694:	4d 89       	ldd	r20, Y+21	; 0x15
    1696:	5e 89       	ldd	r21, Y+22	; 0x16
    1698:	b4 01       	movw	r22, r8
    169a:	c7 01       	movw	r24, r14
    169c:	0e 94 88 00 	call	0x110	; 0x110 <setvoxel>
    16a0:	0c c0       	rjmp	.+24     	; 0x16ba <effect_wormsqueeze+0x18a>
				
				if (axis == AXIS_X)
    16a2:	98 e7       	ldi	r25, 0x78	; 120
    16a4:	29 16       	cp	r2, r25
    16a6:	31 04       	cpc	r3, r1
    16a8:	41 f4       	brne	.+16     	; 0x16ba <effect_wormsqueeze+0x18a>
		}
	}
}

// 14 эффект "смерч"
void effect_wormsqueeze (int size, int axis, int direction, int iterations, int delay)
    16aa:	4d 89       	ldd	r20, Y+21	; 0x15
    16ac:	5e 89       	ldd	r21, Y+22	; 0x16
    16ae:	4a 0d       	add	r20, r10
    16b0:	5b 1d       	adc	r21, r11
				
				if (axis == AXIS_Y)
				setvoxel(x+j,origin,y+k);
				
				if (axis == AXIS_X)
				setvoxel(origin,y+j,x+k);
    16b2:	b6 01       	movw	r22, r12
    16b4:	c4 01       	movw	r24, r8
    16b6:	0e 94 88 00 	call	0x110	; 0x110 <setvoxel>
    16ba:	ad 89       	ldd	r26, Y+21	; 0x15
    16bc:	be 89       	ldd	r27, Y+22	; 0x16
    16be:	11 96       	adiw	r26, 0x01	; 1
    16c0:	be 8b       	std	Y+22, r27	; 0x16
    16c2:	ad 8b       	std	Y+21, r26	; 0x15
		shift(axis, direction);
		

		for (j=0; j<size;j++)
		{
			for (k=0; k<size;k++)
    16c4:	a0 17       	cp	r26, r16
    16c6:	b1 07       	cpc	r27, r17
    16c8:	b1 f6       	brne	.-84     	; 0x1676 <effect_wormsqueeze+0x146>
    16ca:	bf ef       	ldi	r27, 0xFF	; 255
    16cc:	eb 1a       	sub	r14, r27
    16ce:	fb 0a       	sbc	r15, r27
		y += dy;
		
		shift(axis, direction);
		

		for (j=0; j<size;j++)
    16d0:	e4 14       	cp	r14, r4
    16d2:	f5 04       	cpc	r15, r5
    16d4:	39 f0       	breq	.+14     	; 0x16e4 <effect_wormsqueeze+0x1b4>
		}
	}
}

// 14 эффект "смерч"
void effect_wormsqueeze (int size, int axis, int direction, int iterations, int delay)
    16d6:	7e 8a       	std	Y+22, r7	; 0x16
    16d8:	6d 8a       	std	Y+21, r6	; 0x15
    16da:	c9 80       	ldd	r12, Y+1	; 0x01
    16dc:	da 80       	ldd	r13, Y+2	; 0x02
    16de:	ce 0c       	add	r12, r14
    16e0:	df 1c       	adc	r13, r15
    16e2:	c9 cf       	rjmp	.-110    	; 0x1676 <effect_wormsqueeze+0x146>
				if (axis == AXIS_X)
				setvoxel(origin,y+j,x+k);
			}
		}
		
		delay_ms(delay);
    16e4:	89 89       	ldd	r24, Y+17	; 0x11
    16e6:	9a 89       	ldd	r25, Y+18	; 0x12
    16e8:	0e 94 83 02 	call	0x506	; 0x506 <delay_ms>
	cube_size = 8-(size-1);
	
	x = rand()%cube_size;
	y = rand()%cube_size;
	
	for (i=0; i<iterations; i++)
    16ec:	ef 81       	ldd	r30, Y+7	; 0x07
    16ee:	f8 85       	ldd	r31, Y+8	; 0x08
    16f0:	31 96       	adiw	r30, 0x01	; 1
    16f2:	f8 87       	std	Y+8, r31	; 0x08
    16f4:	ef 83       	std	Y+7, r30	; 0x07
    16f6:	2f 85       	ldd	r18, Y+15	; 0x0f
    16f8:	38 89       	ldd	r19, Y+16	; 0x10
    16fa:	e2 17       	cp	r30, r18
    16fc:	f3 07       	cpc	r31, r19
    16fe:	09 f0       	breq	.+2      	; 0x1702 <effect_wormsqueeze+0x1d2>
    1700:	6a cf       	rjmp	.-300    	; 0x15d6 <effect_wormsqueeze+0xa6>
			}
		}
		
		delay_ms(delay);
	}
}
    1702:	66 96       	adiw	r28, 0x16	; 22
    1704:	0f b6       	in	r0, 0x3f	; 63
    1706:	f8 94       	cli
    1708:	de bf       	out	0x3e, r29	; 62
    170a:	0f be       	out	0x3f, r0	; 63
    170c:	cd bf       	out	0x3d, r28	; 61
    170e:	df 91       	pop	r29
    1710:	cf 91       	pop	r28
    1712:	1f 91       	pop	r17
    1714:	0f 91       	pop	r16
    1716:	ff 90       	pop	r15
    1718:	ef 90       	pop	r14
    171a:	df 90       	pop	r13
    171c:	cf 90       	pop	r12
    171e:	bf 90       	pop	r11
    1720:	af 90       	pop	r10
    1722:	9f 90       	pop	r9
    1724:	8f 90       	pop	r8
    1726:	7f 90       	pop	r7
    1728:	6f 90       	pop	r6
    172a:	5f 90       	pop	r5
    172c:	4f 90       	pop	r4
    172e:	3f 90       	pop	r3
    1730:	2f 90       	pop	r2
    1732:	08 95       	ret

00001734 <font_getchar_rus>:
}

void font_getchar_rus (char chr, unsigned char dst[7])
{
	uint8_t i;
	chr -= 32; // расположение в ASCII таблице
    1734:	80 52       	subi	r24, 0x20	; 32
	
	for (i = 0; i < 7; i++){
		dst[i] = font_rus[(chr*7)+i];
    1736:	28 2f       	mov	r18, r24
    1738:	30 e0       	ldi	r19, 0x00	; 0
    173a:	c9 01       	movw	r24, r18
    173c:	88 0f       	add	r24, r24
    173e:	99 1f       	adc	r25, r25
    1740:	88 0f       	add	r24, r24
    1742:	99 1f       	adc	r25, r25
    1744:	88 0f       	add	r24, r24
    1746:	99 1f       	adc	r25, r25
    1748:	82 1b       	sub	r24, r18
    174a:	93 0b       	sbc	r25, r19
    174c:	26 2f       	mov	r18, r22
    174e:	37 2f       	mov	r19, r23
    1750:	f9 01       	movw	r30, r18
void font_getchar_rus (char chr, unsigned char dst[7])
{
	uint8_t i;
	chr -= 32; // расположение в ASCII таблице
	
	for (i = 0; i < 7; i++){
    1752:	40 e0       	ldi	r20, 0x00	; 0
	for (i = 0; i < 5; i++)
	//dst[i] = (unsigned char)eeprom_read_byte((uint8_t*)&font[(chr*5)+i]);
	dst[i] = font[(chr*5)+i];
}

void font_getchar_rus (char chr, unsigned char dst[7])
    1754:	82 1b       	sub	r24, r18
    1756:	93 0b       	sbc	r25, r19
    1758:	dc 01       	movw	r26, r24
    175a:	ae 0f       	add	r26, r30
    175c:	bf 1f       	adc	r27, r31
{
	uint8_t i;
	chr -= 32; // расположение в ASCII таблице
	
	for (i = 0; i < 7; i++){
		dst[i] = font_rus[(chr*7)+i];
    175e:	ac 59       	subi	r26, 0x9C	; 156
    1760:	bf 4f       	sbci	r27, 0xFF	; 255
    1762:	2c 91       	ld	r18, X
    1764:	21 93       	st	Z+, r18
void font_getchar_rus (char chr, unsigned char dst[7])
{
	uint8_t i;
	chr -= 32; // расположение в ASCII таблице
	
	for (i = 0; i < 7; i++){
    1766:	4f 5f       	subi	r20, 0xFF	; 255
    1768:	47 30       	cpi	r20, 0x07	; 7
    176a:	b1 f7       	brne	.-20     	; 0x1758 <font_getchar_rus+0x24>
		dst[i] = font_rus[(chr*7)+i];
	}
}
    176c:	08 95       	ret

0000176e <launch_effect>:
#include "draw.h"
//#include "gameoflife.h"

//Запуск эффектов
void launch_effect (int effect)
{
    176e:	0f 93       	push	r16
    1770:	1f 93       	push	r17
    1772:	cf 93       	push	r28
    1774:	df 93       	push	r29
    1776:	ec 01       	movw	r28, r24
	//int i;
	//unsigned char ii;

	fill(0x00);
    1778:	80 e0       	ldi	r24, 0x00	; 0
    177a:	0e 94 53 01 	call	0x2a6	; 0x2a6 <fill>

	switch (effect)
    177e:	c5 30       	cpi	r28, 0x05	; 5
    1780:	d1 05       	cpc	r29, r1
    1782:	09 f4       	brne	.+2      	; 0x1786 <launch_effect+0x18>
    1784:	bd c0       	rjmp	.+378    	; 0x1900 <launch_effect+0x192>
    1786:	94 f4       	brge	.+36     	; 0x17ac <launch_effect+0x3e>
    1788:	c2 30       	cpi	r28, 0x02	; 2
    178a:	d1 05       	cpc	r29, r1
    178c:	91 f1       	breq	.+100    	; 0x17f2 <launch_effect+0x84>
    178e:	34 f4       	brge	.+12     	; 0x179c <launch_effect+0x2e>
    1790:	20 97       	sbiw	r28, 0x00	; 0
    1792:	09 f1       	breq	.+66     	; 0x17d6 <launch_effect+0x68>
    1794:	21 97       	sbiw	r28, 0x01	; 1
    1796:	09 f0       	breq	.+2      	; 0x179a <launch_effect+0x2c>
    1798:	4e c1       	rjmp	.+668    	; 0x1a36 <launch_effect+0x2c8>
    179a:	22 c0       	rjmp	.+68     	; 0x17e0 <launch_effect+0x72>
    179c:	c3 30       	cpi	r28, 0x03	; 3
    179e:	d1 05       	cpc	r29, r1
    17a0:	09 f4       	brne	.+2      	; 0x17a4 <launch_effect+0x36>
    17a2:	40 c0       	rjmp	.+128    	; 0x1824 <launch_effect+0xb6>
    17a4:	24 97       	sbiw	r28, 0x04	; 4
    17a6:	09 f0       	breq	.+2      	; 0x17aa <launch_effect+0x3c>
    17a8:	46 c1       	rjmp	.+652    	; 0x1a36 <launch_effect+0x2c8>
    17aa:	85 c0       	rjmp	.+266    	; 0x18b6 <launch_effect+0x148>
    17ac:	c8 30       	cpi	r28, 0x08	; 8
    17ae:	d1 05       	cpc	r29, r1
    17b0:	09 f4       	brne	.+2      	; 0x17b4 <launch_effect+0x46>
    17b2:	e3 c0       	rjmp	.+454    	; 0x197a <launch_effect+0x20c>
    17b4:	44 f4       	brge	.+16     	; 0x17c6 <launch_effect+0x58>
    17b6:	c6 30       	cpi	r28, 0x06	; 6
    17b8:	d1 05       	cpc	r29, r1
    17ba:	09 f4       	brne	.+2      	; 0x17be <launch_effect+0x50>
    17bc:	a4 c0       	rjmp	.+328    	; 0x1906 <launch_effect+0x198>
    17be:	27 97       	sbiw	r28, 0x07	; 7
    17c0:	09 f0       	breq	.+2      	; 0x17c4 <launch_effect+0x56>
    17c2:	39 c1       	rjmp	.+626    	; 0x1a36 <launch_effect+0x2c8>
    17c4:	d3 c0       	rjmp	.+422    	; 0x196c <launch_effect+0x1fe>
    17c6:	c9 30       	cpi	r28, 0x09	; 9
    17c8:	d1 05       	cpc	r29, r1
    17ca:	09 f4       	brne	.+2      	; 0x17ce <launch_effect+0x60>
    17cc:	e3 c0       	rjmp	.+454    	; 0x1994 <launch_effect+0x226>
    17ce:	2a 97       	sbiw	r28, 0x0a	; 10
    17d0:	09 f0       	breq	.+2      	; 0x17d4 <launch_effect+0x66>
    17d2:	31 c1       	rjmp	.+610    	; 0x1a36 <launch_effect+0x2c8>
    17d4:	28 c1       	rjmp	.+592    	; 0x1a26 <launch_effect+0x2b8>
			
			//effect_test();
			//TEST_effect(0xFF);
			//effect_random_filler (10, 10);
			//effect_path_bitmap(900,4,6);
			effect_stringfly2("ПРИВЕТ");
    17d6:	89 eb       	ldi	r24, 0xB9	; 185
    17d8:	95 e0       	ldi	r25, 0x05	; 5
    17da:	0e 94 7d 04 	call	0x8fa	; 0x8fa <effect_stringfly2>
			//fill(0xff);
			
		break;
    17de:	2e c1       	rjmp	.+604    	; 0x1a3c <launch_effect+0x2ce>
		
		
		case 1:
			sendvoxels_rand_z(20,220,2000);
    17e0:	40 ed       	ldi	r20, 0xD0	; 208
    17e2:	57 e0       	ldi	r21, 0x07	; 7
    17e4:	6c ed       	ldi	r22, 0xDC	; 220
    17e6:	70 e0       	ldi	r23, 0x00	; 0
    17e8:	84 e1       	ldi	r24, 0x14	; 20
    17ea:	90 e0       	ldi	r25, 0x00	; 0
    17ec:	0e 94 f1 06 	call	0xde2	; 0xde2 <sendvoxels_rand_z>
		break;
    17f0:	25 c1       	rjmp	.+586    	; 0x1a3c <launch_effect+0x2ce>
		
		case 2:
		effect_random_filler(5,1);
    17f2:	61 e0       	ldi	r22, 0x01	; 1
    17f4:	70 e0       	ldi	r23, 0x00	; 0
    17f6:	85 e0       	ldi	r24, 0x05	; 5
    17f8:	90 e0       	ldi	r25, 0x00	; 0
    17fa:	0e 94 7c 07 	call	0xef8	; 0xef8 <effect_random_filler>
		effect_random_filler(5,0);
    17fe:	60 e0       	ldi	r22, 0x00	; 0
    1800:	70 e0       	ldi	r23, 0x00	; 0
    1802:	85 e0       	ldi	r24, 0x05	; 5
    1804:	90 e0       	ldi	r25, 0x00	; 0
    1806:	0e 94 7c 07 	call	0xef8	; 0xef8 <effect_random_filler>
		effect_random_filler(5,1);
    180a:	61 e0       	ldi	r22, 0x01	; 1
    180c:	70 e0       	ldi	r23, 0x00	; 0
    180e:	85 e0       	ldi	r24, 0x05	; 5
    1810:	90 e0       	ldi	r25, 0x00	; 0
    1812:	0e 94 7c 07 	call	0xef8	; 0xef8 <effect_random_filler>
		effect_random_filler(5,0);
    1816:	60 e0       	ldi	r22, 0x00	; 0
    1818:	70 e0       	ldi	r23, 0x00	; 0
    181a:	85 e0       	ldi	r24, 0x05	; 5
    181c:	90 e0       	ldi	r25, 0x00	; 0
    181e:	0e 94 7c 07 	call	0xef8	; 0xef8 <effect_random_filler>
		break;
    1822:	0c c1       	rjmp	.+536    	; 0x1a3c <launch_effect+0x2ce>
		
		case 3:
		effect_box_woopwoop(800,0);
    1824:	60 e0       	ldi	r22, 0x00	; 0
    1826:	70 e0       	ldi	r23, 0x00	; 0
    1828:	80 e2       	ldi	r24, 0x20	; 32
    182a:	93 e0       	ldi	r25, 0x03	; 3
    182c:	0e 94 5e 06 	call	0xcbc	; 0xcbc <effect_box_woopwoop>
		effect_box_woopwoop(800,1);
    1830:	61 e0       	ldi	r22, 0x01	; 1
    1832:	70 e0       	ldi	r23, 0x00	; 0
    1834:	80 e2       	ldi	r24, 0x20	; 32
    1836:	93 e0       	ldi	r25, 0x03	; 3
    1838:	0e 94 5e 06 	call	0xcbc	; 0xcbc <effect_box_woopwoop>
		effect_box_woopwoop(800,0);
    183c:	60 e0       	ldi	r22, 0x00	; 0
    183e:	70 e0       	ldi	r23, 0x00	; 0
    1840:	80 e2       	ldi	r24, 0x20	; 32
    1842:	93 e0       	ldi	r25, 0x03	; 3
    1844:	0e 94 5e 06 	call	0xcbc	; 0xcbc <effect_box_woopwoop>
		effect_box_woopwoop(800,1);
    1848:	61 e0       	ldi	r22, 0x01	; 1
    184a:	70 e0       	ldi	r23, 0x00	; 0
    184c:	80 e2       	ldi	r24, 0x20	; 32
    184e:	93 e0       	ldi	r25, 0x03	; 3
    1850:	0e 94 5e 06 	call	0xcbc	; 0xcbc <effect_box_woopwoop>
		
		effect_box_woopwoop(800,0);
    1854:	60 e0       	ldi	r22, 0x00	; 0
    1856:	70 e0       	ldi	r23, 0x00	; 0
    1858:	80 e2       	ldi	r24, 0x20	; 32
    185a:	93 e0       	ldi	r25, 0x03	; 3
    185c:	0e 94 5e 06 	call	0xcbc	; 0xcbc <effect_box_woopwoop>
		effect_box_woopwoop(800,1);
    1860:	61 e0       	ldi	r22, 0x01	; 1
    1862:	70 e0       	ldi	r23, 0x00	; 0
    1864:	80 e2       	ldi	r24, 0x20	; 32
    1866:	93 e0       	ldi	r25, 0x03	; 3
    1868:	0e 94 5e 06 	call	0xcbc	; 0xcbc <effect_box_woopwoop>
		effect_box_woopwoop(800,0);
    186c:	60 e0       	ldi	r22, 0x00	; 0
    186e:	70 e0       	ldi	r23, 0x00	; 0
    1870:	80 e2       	ldi	r24, 0x20	; 32
    1872:	93 e0       	ldi	r25, 0x03	; 3
    1874:	0e 94 5e 06 	call	0xcbc	; 0xcbc <effect_box_woopwoop>
		effect_box_woopwoop(800,1);
    1878:	61 e0       	ldi	r22, 0x01	; 1
    187a:	70 e0       	ldi	r23, 0x00	; 0
    187c:	80 e2       	ldi	r24, 0x20	; 32
    187e:	93 e0       	ldi	r25, 0x03	; 3
    1880:	0e 94 5e 06 	call	0xcbc	; 0xcbc <effect_box_woopwoop>
		
		effect_box_woopwoop(800,0);
    1884:	60 e0       	ldi	r22, 0x00	; 0
    1886:	70 e0       	ldi	r23, 0x00	; 0
    1888:	80 e2       	ldi	r24, 0x20	; 32
    188a:	93 e0       	ldi	r25, 0x03	; 3
    188c:	0e 94 5e 06 	call	0xcbc	; 0xcbc <effect_box_woopwoop>
		effect_box_woopwoop(800,1);
    1890:	61 e0       	ldi	r22, 0x01	; 1
    1892:	70 e0       	ldi	r23, 0x00	; 0
    1894:	80 e2       	ldi	r24, 0x20	; 32
    1896:	93 e0       	ldi	r25, 0x03	; 3
    1898:	0e 94 5e 06 	call	0xcbc	; 0xcbc <effect_box_woopwoop>
		effect_box_woopwoop(800,0);
    189c:	60 e0       	ldi	r22, 0x00	; 0
    189e:	70 e0       	ldi	r23, 0x00	; 0
    18a0:	80 e2       	ldi	r24, 0x20	; 32
    18a2:	93 e0       	ldi	r25, 0x03	; 3
    18a4:	0e 94 5e 06 	call	0xcbc	; 0xcbc <effect_box_woopwoop>
		effect_box_woopwoop(800,1);
    18a8:	61 e0       	ldi	r22, 0x01	; 1
    18aa:	70 e0       	ldi	r23, 0x00	; 0
    18ac:	80 e2       	ldi	r24, 0x20	; 32
    18ae:	93 e0       	ldi	r25, 0x03	; 3
    18b0:	0e 94 5e 06 	call	0xcbc	; 0xcbc <effect_box_woopwoop>
		break;
    18b4:	c3 c0       	rjmp	.+390    	; 0x1a3c <launch_effect+0x2ce>
		
		case 4:
		effect_planboing (AXIS_Z, 400);
    18b6:	60 e9       	ldi	r22, 0x90	; 144
    18b8:	71 e0       	ldi	r23, 0x01	; 1
    18ba:	8a e7       	ldi	r24, 0x7A	; 122
    18bc:	90 e0       	ldi	r25, 0x00	; 0
    18be:	0e 94 10 05 	call	0xa20	; 0xa20 <effect_planboing>
		effect_planboing (AXIS_X, 400);
    18c2:	60 e9       	ldi	r22, 0x90	; 144
    18c4:	71 e0       	ldi	r23, 0x01	; 1
    18c6:	88 e7       	ldi	r24, 0x78	; 120
    18c8:	90 e0       	ldi	r25, 0x00	; 0
    18ca:	0e 94 10 05 	call	0xa20	; 0xa20 <effect_planboing>
		effect_planboing (AXIS_Y, 400);
    18ce:	60 e9       	ldi	r22, 0x90	; 144
    18d0:	71 e0       	ldi	r23, 0x01	; 1
    18d2:	89 e7       	ldi	r24, 0x79	; 121
    18d4:	90 e0       	ldi	r25, 0x00	; 0
    18d6:	0e 94 10 05 	call	0xa20	; 0xa20 <effect_planboing>
		effect_planboing (AXIS_Z, 400);
    18da:	60 e9       	ldi	r22, 0x90	; 144
    18dc:	71 e0       	ldi	r23, 0x01	; 1
    18de:	8a e7       	ldi	r24, 0x7A	; 122
    18e0:	90 e0       	ldi	r25, 0x00	; 0
    18e2:	0e 94 10 05 	call	0xa20	; 0xa20 <effect_planboing>
		effect_planboing (AXIS_X, 400);
    18e6:	60 e9       	ldi	r22, 0x90	; 144
    18e8:	71 e0       	ldi	r23, 0x01	; 1
    18ea:	88 e7       	ldi	r24, 0x78	; 120
    18ec:	90 e0       	ldi	r25, 0x00	; 0
    18ee:	0e 94 10 05 	call	0xa20	; 0xa20 <effect_planboing>
		effect_planboing (AXIS_Y, 400);
    18f2:	60 e9       	ldi	r22, 0x90	; 144
    18f4:	71 e0       	ldi	r23, 0x01	; 1
    18f6:	89 e7       	ldi	r24, 0x79	; 121
    18f8:	90 e0       	ldi	r25, 0x00	; 0
    18fa:	0e 94 10 05 	call	0xa20	; 0xa20 <effect_planboing>
		break;
    18fe:	9e c0       	rjmp	.+316    	; 0x1a3c <launch_effect+0x2ce>
		
		case 5:
		effect_blinky2();
    1900:	0e 94 3f 05 	call	0xa7e	; 0xa7e <effect_blinky2>
		break;
    1904:	9b c0       	rjmp	.+310    	; 0x1a3c <launch_effect+0x2ce>
	//int i;
	//unsigned char ii;

	fill(0x00);

	switch (effect)
    1906:	c0 e0       	ldi	r28, 0x00	; 0
    1908:	d0 e0       	ldi	r29, 0x00	; 0
		break;
		
		case 6:
		for (int ii=0;ii<8;ii++)
		{
			effect_box_shrink_grow (1, ii%4, ii & 0x04, 450);
    190a:	ae 01       	movw	r20, r28
    190c:	44 70       	andi	r20, 0x04	; 4
    190e:	55 27       	eor	r21, r21
    1910:	be 01       	movw	r22, r28
    1912:	63 70       	andi	r22, 0x03	; 3
    1914:	70 78       	andi	r23, 0x80	; 128
    1916:	77 23       	and	r23, r23
    1918:	34 f4       	brge	.+12     	; 0x1926 <launch_effect+0x1b8>
    191a:	61 50       	subi	r22, 0x01	; 1
    191c:	71 09       	sbc	r23, r1
    191e:	6c 6f       	ori	r22, 0xFC	; 252
    1920:	7f 6f       	ori	r23, 0xFF	; 255
    1922:	6f 5f       	subi	r22, 0xFF	; 255
    1924:	7f 4f       	sbci	r23, 0xFF	; 255
    1926:	22 ec       	ldi	r18, 0xC2	; 194
    1928:	31 e0       	ldi	r19, 0x01	; 1
    192a:	81 e0       	ldi	r24, 0x01	; 1
    192c:	90 e0       	ldi	r25, 0x00	; 0
    192e:	0e 94 c1 05 	call	0xb82	; 0xb82 <effect_box_shrink_grow>
		case 5:
		effect_blinky2();
		break;
		
		case 6:
		for (int ii=0;ii<8;ii++)
    1932:	21 96       	adiw	r28, 0x01	; 1
    1934:	c8 30       	cpi	r28, 0x08	; 8
    1936:	d1 05       	cpc	r29, r1
    1938:	41 f7       	brne	.-48     	; 0x190a <launch_effect+0x19c>
		{
			effect_box_shrink_grow (1, ii%4, ii & 0x04, 450);
		}

		effect_box_woopwoop(800,0);
    193a:	60 e0       	ldi	r22, 0x00	; 0
    193c:	70 e0       	ldi	r23, 0x00	; 0
    193e:	80 e2       	ldi	r24, 0x20	; 32
    1940:	93 e0       	ldi	r25, 0x03	; 3
    1942:	0e 94 5e 06 	call	0xcbc	; 0xcbc <effect_box_woopwoop>
		effect_box_woopwoop(800,1);
    1946:	61 e0       	ldi	r22, 0x01	; 1
    1948:	70 e0       	ldi	r23, 0x00	; 0
    194a:	80 e2       	ldi	r24, 0x20	; 32
    194c:	93 e0       	ldi	r25, 0x03	; 3
    194e:	0e 94 5e 06 	call	0xcbc	; 0xcbc <effect_box_woopwoop>
		effect_box_woopwoop(800,0);
    1952:	60 e0       	ldi	r22, 0x00	; 0
    1954:	70 e0       	ldi	r23, 0x00	; 0
    1956:	80 e2       	ldi	r24, 0x20	; 32
    1958:	93 e0       	ldi	r25, 0x03	; 3
    195a:	0e 94 5e 06 	call	0xcbc	; 0xcbc <effect_box_woopwoop>
		effect_box_woopwoop(800,1);
    195e:	61 e0       	ldi	r22, 0x01	; 1
    1960:	70 e0       	ldi	r23, 0x00	; 0
    1962:	80 e2       	ldi	r24, 0x20	; 32
    1964:	93 e0       	ldi	r25, 0x03	; 3
    1966:	0e 94 5e 06 	call	0xcbc	; 0xcbc <effect_box_woopwoop>
		
	
		break;
    196a:	68 c0       	rjmp	.+208    	; 0x1a3c <launch_effect+0x2ce>
		
		case 7:
		effect_z_updown(20,1000);
    196c:	68 ee       	ldi	r22, 0xE8	; 232
    196e:	73 e0       	ldi	r23, 0x03	; 3
    1970:	84 e1       	ldi	r24, 0x14	; 20
    1972:	90 e0       	ldi	r25, 0x00	; 0
    1974:	0e 94 dd 09 	call	0x13ba	; 0x13ba <effect_z_updown>
		break;
    1978:	61 c0       	rjmp	.+194    	; 0x1a3c <launch_effect+0x2ce>
		
		case 8:
		effect_wormsqueeze (1, AXIS_Z, -1, 100, 1000);
    197a:	08 ee       	ldi	r16, 0xE8	; 232
    197c:	13 e0       	ldi	r17, 0x03	; 3
    197e:	24 e6       	ldi	r18, 0x64	; 100
    1980:	30 e0       	ldi	r19, 0x00	; 0
    1982:	4f ef       	ldi	r20, 0xFF	; 255
    1984:	5f ef       	ldi	r21, 0xFF	; 255
    1986:	6a e7       	ldi	r22, 0x7A	; 122
    1988:	70 e0       	ldi	r23, 0x00	; 0
    198a:	81 e0       	ldi	r24, 0x01	; 1
    198c:	90 e0       	ldi	r25, 0x00	; 0
    198e:	0e 94 98 0a 	call	0x1530	; 0x1530 <effect_wormsqueeze>
		break;
    1992:	54 c0       	rjmp	.+168    	; 0x1a3c <launch_effect+0x2ce>
		
		case 9:
		effect_axis_updown_randsuspend(AXIS_Z, 550,5000,0);
    1994:	20 e0       	ldi	r18, 0x00	; 0
    1996:	30 e0       	ldi	r19, 0x00	; 0
    1998:	48 e8       	ldi	r20, 0x88	; 136
    199a:	53 e1       	ldi	r21, 0x13	; 19
    199c:	66 e2       	ldi	r22, 0x26	; 38
    199e:	72 e0       	ldi	r23, 0x02	; 2
    19a0:	8a e7       	ldi	r24, 0x7A	; 122
    19a2:	0e 94 bd 08 	call	0x117a	; 0x117a <effect_axis_updown_randsuspend>
		effect_axis_updown_randsuspend(AXIS_Z, 550,5000,1);
    19a6:	21 e0       	ldi	r18, 0x01	; 1
    19a8:	30 e0       	ldi	r19, 0x00	; 0
    19aa:	48 e8       	ldi	r20, 0x88	; 136
    19ac:	53 e1       	ldi	r21, 0x13	; 19
    19ae:	66 e2       	ldi	r22, 0x26	; 38
    19b0:	72 e0       	ldi	r23, 0x02	; 2
    19b2:	8a e7       	ldi	r24, 0x7A	; 122
    19b4:	0e 94 bd 08 	call	0x117a	; 0x117a <effect_axis_updown_randsuspend>
		effect_axis_updown_randsuspend(AXIS_Z, 550,5000,0);
    19b8:	20 e0       	ldi	r18, 0x00	; 0
    19ba:	30 e0       	ldi	r19, 0x00	; 0
    19bc:	48 e8       	ldi	r20, 0x88	; 136
    19be:	53 e1       	ldi	r21, 0x13	; 19
    19c0:	66 e2       	ldi	r22, 0x26	; 38
    19c2:	72 e0       	ldi	r23, 0x02	; 2
    19c4:	8a e7       	ldi	r24, 0x7A	; 122
    19c6:	0e 94 bd 08 	call	0x117a	; 0x117a <effect_axis_updown_randsuspend>
		effect_axis_updown_randsuspend(AXIS_Z, 550,5000,1);
    19ca:	21 e0       	ldi	r18, 0x01	; 1
    19cc:	30 e0       	ldi	r19, 0x00	; 0
    19ce:	48 e8       	ldi	r20, 0x88	; 136
    19d0:	53 e1       	ldi	r21, 0x13	; 19
    19d2:	66 e2       	ldi	r22, 0x26	; 38
    19d4:	72 e0       	ldi	r23, 0x02	; 2
    19d6:	8a e7       	ldi	r24, 0x7A	; 122
    19d8:	0e 94 bd 08 	call	0x117a	; 0x117a <effect_axis_updown_randsuspend>
		effect_axis_updown_randsuspend(AXIS_X, 550,5000,0);
    19dc:	20 e0       	ldi	r18, 0x00	; 0
    19de:	30 e0       	ldi	r19, 0x00	; 0
    19e0:	48 e8       	ldi	r20, 0x88	; 136
    19e2:	53 e1       	ldi	r21, 0x13	; 19
    19e4:	66 e2       	ldi	r22, 0x26	; 38
    19e6:	72 e0       	ldi	r23, 0x02	; 2
    19e8:	88 e7       	ldi	r24, 0x78	; 120
    19ea:	0e 94 bd 08 	call	0x117a	; 0x117a <effect_axis_updown_randsuspend>
		effect_axis_updown_randsuspend(AXIS_X, 550,5000,1);
    19ee:	21 e0       	ldi	r18, 0x01	; 1
    19f0:	30 e0       	ldi	r19, 0x00	; 0
    19f2:	48 e8       	ldi	r20, 0x88	; 136
    19f4:	53 e1       	ldi	r21, 0x13	; 19
    19f6:	66 e2       	ldi	r22, 0x26	; 38
    19f8:	72 e0       	ldi	r23, 0x02	; 2
    19fa:	88 e7       	ldi	r24, 0x78	; 120
    19fc:	0e 94 bd 08 	call	0x117a	; 0x117a <effect_axis_updown_randsuspend>
		effect_axis_updown_randsuspend(AXIS_Y, 550,5000,0);
    1a00:	20 e0       	ldi	r18, 0x00	; 0
    1a02:	30 e0       	ldi	r19, 0x00	; 0
    1a04:	48 e8       	ldi	r20, 0x88	; 136
    1a06:	53 e1       	ldi	r21, 0x13	; 19
    1a08:	66 e2       	ldi	r22, 0x26	; 38
    1a0a:	72 e0       	ldi	r23, 0x02	; 2
    1a0c:	89 e7       	ldi	r24, 0x79	; 121
    1a0e:	0e 94 bd 08 	call	0x117a	; 0x117a <effect_axis_updown_randsuspend>
		effect_axis_updown_randsuspend(AXIS_Y, 550,5000,1);
    1a12:	21 e0       	ldi	r18, 0x01	; 1
    1a14:	30 e0       	ldi	r19, 0x00	; 0
    1a16:	48 e8       	ldi	r20, 0x88	; 136
    1a18:	53 e1       	ldi	r21, 0x13	; 19
    1a1a:	66 e2       	ldi	r22, 0x26	; 38
    1a1c:	72 e0       	ldi	r23, 0x02	; 2
    1a1e:	89 e7       	ldi	r24, 0x79	; 121
    1a20:	0e 94 bd 08 	call	0x117a	; 0x117a <effect_axis_updown_randsuspend>
		break;
    1a24:	0b c0       	rjmp	.+22     	; 0x1a3c <launch_effect+0x2ce>
		
		case 10:
			effect_rain(100);
    1a26:	84 e6       	ldi	r24, 0x64	; 100
    1a28:	90 e0       	ldi	r25, 0x00	; 0
    1a2a:	0e 94 f7 07 	call	0xfee	; 0xfee <effect_rain>
			fill(0x00);
    1a2e:	80 e0       	ldi	r24, 0x00	; 0
    1a30:	0e 94 53 01 	call	0x2a6	; 0x2a6 <fill>
		break;
    1a34:	03 c0       	rjmp	.+6      	; 0x1a3c <launch_effect+0x2ce>
		
		// In case the effect number is out of range:
		default:
		//effect_stringfly2("FAIL");
		//effect_wormsqueeze (1, AXIS_Z, -1, 100, 1000);
		fill(0x00);
    1a36:	80 e0       	ldi	r24, 0x00	; 0
    1a38:	0e 94 53 01 	call	0x2a6	; 0x2a6 <fill>
		break;
		
		

	}
}
    1a3c:	df 91       	pop	r29
    1a3e:	cf 91       	pop	r28
    1a40:	1f 91       	pop	r17
    1a42:	0f 91       	pop	r16
    1a44:	08 95       	ret

00001a46 <__vector_4>:
4) Открываем (включаем) выводы на всех сдвиговых регистрах 74HC574;
5) Включение текущего слоя;
6) Увеличение счётчика текущего слоя (переход к следующему слою), чтобы следующий слой рисовался при выполнении этой функции.
*/
ISR(TIMER2_COMP_vect)
{
    1a46:	1f 92       	push	r1
    1a48:	0f 92       	push	r0
    1a4a:	0f b6       	in	r0, 0x3f	; 63
    1a4c:	0f 92       	push	r0
    1a4e:	11 24       	eor	r1, r1
    1a50:	2f 93       	push	r18
    1a52:	3f 93       	push	r19
    1a54:	8f 93       	push	r24
    1a56:	9f 93       	push	r25
    1a58:	ef 93       	push	r30
    1a5a:	ff 93       	push	r31
	int i;

	LAYER_SELECT = 0x00;// Отключить все слои. Отключаем землю всех слоёв.
    1a5c:	15 ba       	out	0x15, r1	; 21
	OE_PORT |= OE_MASK; // Устанавливаем OE(включение/отключение выхода Q0-Q7 сдвигового регистра 74HC574) в
    1a5e:	c3 9a       	sbi	0x18, 3	; 24
	//высокий логический уровень, т.е. отключаем вывод данных на портах Q0-Q7
	
	//Цикл по 8-ми байтам данных, в текущем слое(уровне). Другими словами: загружаем данные (1байт = 8бит) в текущем слое на каждый ряд.
	for (i = 0; i < 8; i++)
    1a60:	80 e0       	ldi	r24, 0x00	; 0
    1a62:	90 e0       	ldi	r25, 0x00	; 0
	{
		//Установка значений (данных) на шине данных в конкретном сдвиговом регистре (отдельный ряд в текущем слое).
		PORTA = cube[current_layer][i];
    1a64:	20 91 41 06 	lds	r18, 0x0641
    1a68:	fc 01       	movw	r30, r24
    1a6a:	38 e0       	ldi	r19, 0x08	; 8
    1a6c:	23 9f       	mul	r18, r19
    1a6e:	e0 0d       	add	r30, r0
    1a70:	f1 1d       	adc	r31, r1
    1a72:	11 24       	eor	r1, r1
    1a74:	e0 50       	subi	r30, 0x00	; 0
    1a76:	fa 4f       	sbci	r31, 0xFA	; 250
    1a78:	20 81       	ld	r18, Z
    1a7a:	2b bb       	out	0x1b, r18	; 27
		//Переключение к следующему сдвиговому регистру 74HC574 (ряду в текущем слое) и загрузка в него данных (в следующей итерации цикла)
		LATCH_ADDR = (LATCH_ADDR & LATCH_MASK_INV) | (LATCH_MASK & (i+1));
    1a7c:	28 b3       	in	r18, 0x18	; 24
3) Загрузка текущего слоя из буфера куба на массив сдвигового регистра;
4) Открываем (включаем) выводы на всех сдвиговых регистрах 74HC574;
5) Включение текущего слоя;
6) Увеличение счётчика текущего слоя (переход к следующему слою), чтобы следующий слой рисовался при выполнении этой функции.
*/
ISR(TIMER2_COMP_vect)
    1a7e:	38 2f       	mov	r19, r24
    1a80:	3f 5f       	subi	r19, 0xFF	; 255
	for (i = 0; i < 8; i++)
	{
		//Установка значений (данных) на шине данных в конкретном сдвиговом регистре (отдельный ряд в текущем слое).
		PORTA = cube[current_layer][i];
		//Переключение к следующему сдвиговому регистру 74HC574 (ряду в текущем слое) и загрузка в него данных (в следующей итерации цикла)
		LATCH_ADDR = (LATCH_ADDR & LATCH_MASK_INV) | (LATCH_MASK & (i+1));
    1a82:	37 70       	andi	r19, 0x07	; 7
    1a84:	28 7f       	andi	r18, 0xF8	; 248
    1a86:	23 2b       	or	r18, r19
    1a88:	28 bb       	out	0x18, r18	; 24
	LAYER_SELECT = 0x00;// Отключить все слои. Отключаем землю всех слоёв.
	OE_PORT |= OE_MASK; // Устанавливаем OE(включение/отключение выхода Q0-Q7 сдвигового регистра 74HC574) в
	//высокий логический уровень, т.е. отключаем вывод данных на портах Q0-Q7
	
	//Цикл по 8-ми байтам данных, в текущем слое(уровне). Другими словами: загружаем данные (1байт = 8бит) в текущем слое на каждый ряд.
	for (i = 0; i < 8; i++)
    1a8a:	01 96       	adiw	r24, 0x01	; 1
    1a8c:	88 30       	cpi	r24, 0x08	; 8
    1a8e:	91 05       	cpc	r25, r1
    1a90:	49 f7       	brne	.-46     	; 0x1a64 <__vector_4+0x1e>
		PORTA = cube[current_layer][i];
		//Переключение к следующему сдвиговому регистру 74HC574 (ряду в текущем слое) и загрузка в него данных (в следующей итерации цикла)
		LATCH_ADDR = (LATCH_ADDR & LATCH_MASK_INV) | (LATCH_MASK & (i+1));
	}

	OE_PORT &= ~OE_MASK;//Устанавливаем OE(включение/отключение выхода Q0-Q7 сдвигового регистра 74HC574) в
    1a92:	c3 98       	cbi	0x18, 3	; 24
	//низкий логический уровень, т.е. включаем вывод данных на портах Q0-Q7
	
	LAYER_SELECT = (0x01 << current_layer); //Включаем землю для текущего слоя (включаем текущий слой)
    1a94:	20 91 41 06 	lds	r18, 0x0641
    1a98:	81 e0       	ldi	r24, 0x01	; 1
    1a9a:	90 e0       	ldi	r25, 0x00	; 0
    1a9c:	02 c0       	rjmp	.+4      	; 0x1aa2 <__vector_4+0x5c>
    1a9e:	88 0f       	add	r24, r24
    1aa0:	99 1f       	adc	r25, r25
    1aa2:	2a 95       	dec	r18
    1aa4:	e2 f7       	brpl	.-8      	; 0x1a9e <__vector_4+0x58>
    1aa6:	85 bb       	out	0x15, r24	; 21

	//Увеличение счётчика текущего слоя (переход к следующему слою), чтобы следующий слой рисовался при выполнении этой функции.
	current_layer++;
    1aa8:	80 91 41 06 	lds	r24, 0x0641
    1aac:	8f 5f       	subi	r24, 0xFF	; 255
    1aae:	80 93 41 06 	sts	0x0641, r24
	//Так как счет ведётся от 0-7, то устанавливаем current_layer в 0, когда он достигает 8.
	if (current_layer == 8)
    1ab2:	80 91 41 06 	lds	r24, 0x0641
    1ab6:	88 30       	cpi	r24, 0x08	; 8
    1ab8:	11 f4       	brne	.+4      	; 0x1abe <__vector_4+0x78>
	current_layer = 0;
    1aba:	10 92 41 06 	sts	0x0641, r1
	
}
    1abe:	ff 91       	pop	r31
    1ac0:	ef 91       	pop	r30
    1ac2:	9f 91       	pop	r25
    1ac4:	8f 91       	pop	r24
    1ac6:	3f 91       	pop	r19
    1ac8:	2f 91       	pop	r18
    1aca:	0f 90       	pop	r0
    1acc:	0f be       	out	0x3f, r0	; 63
    1ace:	0f 90       	pop	r0
    1ad0:	1f 90       	pop	r1
    1ad2:	18 95       	reti

00001ad4 <ioinit>:


void ioinit (void)
{
	DDRA = 0xff;	//ПортA выставляем все единицы (0x11111111). Все элементы портаA настроены на ВЫХОД!
    1ad4:	8f ef       	ldi	r24, 0xFF	; 255
    1ad6:	8a bb       	out	0x1a, r24	; 26
	
	DDRB = 0xef; //ПортB выставляем все единицы кроме четвертого бита (0b11101111).
    1ad8:	9f ee       	ldi	r25, 0xEF	; 239
    1ada:	97 bb       	out	0x17, r25	; 23
	//Все элементы портаA настроены на ВЫХОД, кроме четвертого элемента, он настроен на ВХОД!
	DDRC = 0xff;	//Все элементы портаС делаем ВЫХОДНЫМИ!
    1adc:	84 bb       	out	0x14, r24	; 20
	DDRD = 0xdf;	//ПортD. Все элементы ВЫХОДНЫЕ, кроме пятого (пятого бита), он ВХОДНОЙ!
    1ade:	8f ed       	ldi	r24, 0xDF	; 223
    1ae0:	81 bb       	out	0x11, r24	; 17
	
	
	PORTA = 0x00; //Задаём всем элементам портаA режим "отключены"
    1ae2:	1b ba       	out	0x1b, r1	; 27
	PORTC = 0x00; //Задаём всем элементам портаB режим "отключены"
    1ae4:	15 ba       	out	0x15, r1	; 21
	PORTB = 0x10; //Задаём всем элементам портаC режим "отключены", кроме пятого элемента, ему задаём режим "включен".
    1ae6:	80 e1       	ldi	r24, 0x10	; 16
    1ae8:	88 bb       	out	0x18, r24	; 24
	//Это означает что на пятый элемент портаС подается напряжение +5V.
	PORTD = 0x20; //Задаём всем элементам портаD режим "отключены", кроме шестого элемента, ему задаём режим "включен".
    1aea:	80 e2       	ldi	r24, 0x20	; 32
    1aec:	82 bb       	out	0x12, r24	; 18

	// Таймер 2
	//TCCR2 |= (1 << CS21) | (1 << CS22);
	//TCCR2 |= (1 << WGM21);
	//TIMSK |= (1 << OCIE2);
	OCR2 = 10; //Регистр сравнения. Сюда мы записываем то, с чем надо сравнить.
    1aee:	8a e0       	ldi	r24, 0x0A	; 10
    1af0:	83 bd       	out	0x23, r24	; 35
	TCCR2 = 0xD; //Настройки TCCR2 регистра: МП/128, CTC. (B,C,D,E,F)
    1af2:	8d e0       	ldi	r24, 0x0D	; 13
    1af4:	85 bd       	out	0x25, r24	; 37
	TCNT2 = 0x00; //Счетный регистр. В него-то и будет считать наш счетчик. Начальное занчение = 0.
    1af6:	14 bc       	out	0x24, r1	; 36
	TIMSK = 0x80; //Регистр маски прерываний от таймеров/счетчиков. Настройки TIMSK регистра: OCIE2 - флаг разрешения прерывания по совпадению Т2.
    1af8:	80 e8       	ldi	r24, 0x80	; 128
    1afa:	89 bf       	out	0x39, r24	; 57


	// Инициализация RS232
	// Скорость передачи USART определяется в MYUBRR
	UBRRH = MYUBRR >> 8; //0
    1afc:	10 bc       	out	0x20, r1	; 32
	UBRRL = MYUBRR; //скорость обмена 38400 бод
    1afe:	8f e5       	ldi	r24, 0x5F	; 95
    1b00:	89 b9       	out	0x09, r24	; 9
	// bit 2-1      Формат посылок. Совместно с разрядом UCSZ2 эти разряды определяют количество
	//разрядов данных в посылках (размер слова). Размер слова = 8-bit.
	// bit 0        Полярность тактового сигнала. Значение этого разряда определяет момент выдачи
	//и считывания данных на выводах модуля. Разряд используется только при работе в синхронном режиме.
	//При работе в асинхронном режиме он должен быть сброшен в «0».
	UCSRC  = 0b10000110;
    1b02:	86 e8       	ldi	r24, 0x86	; 134
    1b04:	80 bd       	out	0x20, r24	; 32
	// Включение RS232. Разрешение приема (Rx(вход)) и передачи (Tx(выход)).
	UCSRB = (1<<RXEN)|(1<<TXEN);
    1b06:	88 e1       	ldi	r24, 0x18	; 24
    1b08:	8a b9       	out	0x0a, r24	; 10
	// UDR - регистр данных. Отправить пустой байт, чтобы указать питание.
	UDR = 0x00;
    1b0a:	1c b8       	out	0x0c, r1	; 12
    1b0c:	08 95       	ret

00001b0e <bootwait>:

}


unsigned int bootwait (void)
{
    1b0e:	cf 93       	push	r28
    1b10:	df 93       	push	r29
	//мигание зелёного и красного индикаторов
	unsigned int x = 0;
	LED_PORT |= LED_GREEN;
    1b12:	93 9a       	sbi	0x12, 3	; 18


unsigned int bootwait (void)
{
	//мигание зелёного и красного индикаторов
	unsigned int x = 0;
    1b14:	c0 e0       	ldi	r28, 0x00	; 0
    1b16:	d0 e0       	ldi	r29, 0x00	; 0
	LED_PORT |= LED_GREEN;
	while (1)
	{
		x++; // увеличиваем x на единицу
    1b18:	21 96       	adiw	r28, 0x01	; 1
		srand(x); // инициализация генератора случайных чисел
    1b1a:	ce 01       	movw	r24, r28
    1b1c:	0e 94 6b 0e 	call	0x1cd6	; 0x1cd6 <srand>
		
		delay_ms(10000);
    1b20:	80 e1       	ldi	r24, 0x10	; 16
    1b22:	97 e2       	ldi	r25, 0x27	; 39
    1b24:	0e 94 83 02 	call	0x506	; 0x506 <delay_ms>
		LED_PORT &= ~LED_GREEN; // зелёный выключен, красный включен
    1b28:	93 98       	cbi	0x12, 3	; 18
		LED_PORT |= LED_RED; //снова меняем зажигание индикаторов
    1b2a:	92 9a       	sbi	0x12, 2	; 18
		
		//Слушаем нажатие кнопки и возвращаем соответсвующий номер
		if (!(PIND & RS232_BTN))// если кнопка RS323 включена, то возвращаем 2
    1b2c:	85 9b       	sbis	0x10, 5	; 16
    1b2e:	0f c0       	rjmp	.+30     	; 0x1b4e <bootwait+0x40>
		return 2;

		if (!(PINB & MAIN_BTN))//когда нажата основная кнопка, то возвращаем 1
    1b30:	b4 9b       	sbis	0x16, 4	; 22
    1b32:	10 c0       	rjmp	.+32     	; 0x1b54 <bootwait+0x46>
		return 1;
		
		delay_ms(1000);
    1b34:	88 ee       	ldi	r24, 0xE8	; 232
    1b36:	93 e0       	ldi	r25, 0x03	; 3
    1b38:	0e 94 83 02 	call	0x506	; 0x506 <delay_ms>
		//То же, что и выше. Делается это, потому что есть две задержки в этом цикле, используемые для мигания красно-зеленого светодиода.
		LED_PORT &= ~LED_RED; //зелёный выключен, красный включен
    1b3c:	92 98       	cbi	0x12, 2	; 18
		LED_PORT |= LED_GREEN; //снова меняем зажигание индикаторов
    1b3e:	93 9a       	sbi	0x12, 3	; 18
		
		//Слушаем нажатие кнопки и возвращаем соответствующий номер
		if (!(PIND & RS232_BTN))// если кнопка RS323 включена, то возвращаем 2
    1b40:	85 9b       	sbis	0x10, 5	; 16
    1b42:	0b c0       	rjmp	.+22     	; 0x1b5a <bootwait+0x4c>
		return 2;

		if (!(PINB & MAIN_BTN))//когда нажата основная кнопка, то возвращаем 1
    1b44:	b4 99       	sbic	0x16, 4	; 22
    1b46:	e8 cf       	rjmp	.-48     	; 0x1b18 <bootwait+0xa>
		return 1;
    1b48:	21 e0       	ldi	r18, 0x01	; 1
    1b4a:	30 e0       	ldi	r19, 0x00	; 0
    1b4c:	08 c0       	rjmp	.+16     	; 0x1b5e <bootwait+0x50>
		LED_PORT &= ~LED_GREEN; // зелёный выключен, красный включен
		LED_PORT |= LED_RED; //снова меняем зажигание индикаторов
		
		//Слушаем нажатие кнопки и возвращаем соответсвующий номер
		if (!(PIND & RS232_BTN))// если кнопка RS323 включена, то возвращаем 2
		return 2;
    1b4e:	22 e0       	ldi	r18, 0x02	; 2
    1b50:	30 e0       	ldi	r19, 0x00	; 0
    1b52:	05 c0       	rjmp	.+10     	; 0x1b5e <bootwait+0x50>

		if (!(PINB & MAIN_BTN))//когда нажата основная кнопка, то возвращаем 1
		return 1;
    1b54:	21 e0       	ldi	r18, 0x01	; 1
    1b56:	30 e0       	ldi	r19, 0x00	; 0
    1b58:	02 c0       	rjmp	.+4      	; 0x1b5e <bootwait+0x50>
		LED_PORT &= ~LED_RED; //зелёный выключен, красный включен
		LED_PORT |= LED_GREEN; //снова меняем зажигание индикаторов
		
		//Слушаем нажатие кнопки и возвращаем соответствующий номер
		if (!(PIND & RS232_BTN))// если кнопка RS323 включена, то возвращаем 2
		return 2;
    1b5a:	22 e0       	ldi	r18, 0x02	; 2
    1b5c:	30 e0       	ldi	r19, 0x00	; 0

		if (!(PINB & MAIN_BTN))//когда нажата основная кнопка, то возвращаем 1
		return 1;
	}
}
    1b5e:	82 2f       	mov	r24, r18
    1b60:	93 2f       	mov	r25, r19
    1b62:	df 91       	pop	r29
    1b64:	cf 91       	pop	r28
    1b66:	08 95       	ret

00001b68 <rs232>:
	while (1)
	{
		//Включение красного индикатора для отладки.
		//При переключении статуса, каждый раз код ждёт байт, который будет получен.
		//LED_PORT ^= LED_RED;
		LED_PORT = 0b00111100; 
    1b68:	0f 2e       	mov	r0, r31
    1b6a:	fc e3       	ldi	r31, 0x3C	; 60
    1b6c:	ff 2e       	mov	r15, r31
    1b6e:	f0 2d       	mov	r31, r0
		
		//Нижняя срочка, если её раскомментировать, данные вернуться обратно на компьютер. Обеспечиваем "эхо".
		UDR = tempval;
		
		
		if(tempval == 1){
    1b70:	00 e0       	ldi	r16, 0x00	; 0
    1b72:	10 e0       	ldi	r17, 0x00	; 0
	while (1)
	{
		//Включение красного индикатора для отладки.
		//При переключении статуса, каждый раз код ждёт байт, который будет получен.
		//LED_PORT ^= LED_RED;
		LED_PORT = 0b00111100; 
    1b74:	f2 ba       	out	0x12, r15	; 18
		
		
		// Подождите, пока не был получен байт
		while ( !(UCSRA & (1<<RXC)) );
    1b76:	5f 9b       	sbis	0x0b, 7	; 11
    1b78:	fe cf       	rjmp	.-4      	; 0x1b76 <rs232+0xe>
		
		//Загрузка принятого байта из RS232 в буфер
		tempval = UDR;
    1b7a:	2c b1       	in	r18, 0x0c	; 12
    1b7c:	82 2f       	mov	r24, r18
    1b7e:	90 e0       	ldi	r25, 0x00	; 0
		
		//Нижняя срочка, если её раскомментировать, данные вернуться обратно на компьютер. Обеспечиваем "эхо".
		UDR = tempval;
    1b80:	2c b9       	out	0x0c, r18	; 12
		
		
		if(tempval == 1){
    1b82:	81 30       	cpi	r24, 0x01	; 1
    1b84:	91 05       	cpc	r25, r1
    1b86:	49 f4       	brne	.+18     	; 0x1b9a <rs232+0x32>
    1b88:	e8 01       	movw	r28, r16
			for (int i=0; i<EFFECTS_TOTAL; i++){
				launch_effect(i);
    1b8a:	ce 01       	movw	r24, r28
    1b8c:	0e 94 b7 0b 	call	0x176e	; 0x176e <launch_effect>
		//Нижняя срочка, если её раскомментировать, данные вернуться обратно на компьютер. Обеспечиваем "эхо".
		UDR = tempval;
		
		
		if(tempval == 1){
			for (int i=0; i<EFFECTS_TOTAL; i++){
    1b90:	21 96       	adiw	r28, 0x01	; 1
    1b92:	cb 30       	cpi	r28, 0x0B	; 11
    1b94:	d1 05       	cpc	r29, r1
    1b96:	c9 f7       	brne	.-14     	; 0x1b8a <rs232+0x22>
    1b98:	ed cf       	rjmp	.-38     	; 0x1b74 <rs232+0xc>
				
					
			}
		}
		
		if(tempval == 2){
    1b9a:	02 97       	sbiw	r24, 0x02	; 2
    1b9c:	59 f7       	brne	.-42     	; 0x1b74 <rs232+0xc>
			launch_effect(21);
    1b9e:	85 e1       	ldi	r24, 0x15	; 21
    1ba0:	90 e0       	ldi	r25, 0x00	; 0
    1ba2:	0e 94 b7 0b 	call	0x176e	; 0x176e <launch_effect>
    1ba6:	e6 cf       	rjmp	.-52     	; 0x1b74 <rs232+0xc>

00001ba8 <main>:

// Главная функция. AVR входит в эту функцию во время загрузки.
int main (void)
{
	//Эта функция инициирует порты ввода-вывода, таймеры, прерывания и последовательные связи
	ioinit();
    1ba8:	0e 94 6a 0d 	call	0x1ad4	; 0x1ad4 <ioinit>
	
	//Эта переменная определяет, какой слой в настоящее время разрабатывается.
	current_layer = 1;
    1bac:	81 e0       	ldi	r24, 0x01	; 1
    1bae:	80 93 41 06 	sts	0x0641, r24
	// Функция ожидания
	// Эта функция используется в 3-х целях:
	// 1) Задержка запуска каких-либо прерываний, так как рисование куба вызывает много "шума", что может запутать ISP-программиста.
	// 2) Обработчит события нажатия кнопки для перехода в режим RS232 (выбор автономного режима работы или синхронного).
	// 3) Случайная последовательность процессов (отработки эффектов).
	i = bootwait();
    1bb2:	0e 94 87 0d 	call	0x1b0e	; 0x1b0e <bootwait>

	//Команда устанавливает флаг глобального прерывания (I) в регистре статуса (SREG), т.е. разрешает прерывание.
	//С этого начинается процедура обрисовки куба.
	sei();
    1bb6:	78 94       	sei

	//Если функция bootwait() возвращает 2: переходим в режим RS-232.
	if (i == 2)
    1bb8:	02 97       	sbiw	r24, 0x02	; 2
    1bba:	11 f4       	brne	.+4      	; 0x1bc0 <main+0x18>
	{
		rs232();
    1bbc:	0e 94 b4 0d 	call	0x1b68	; 0x1b68 <rs232>
	//Команда устанавливает флаг глобального прерывания (I) в регистре статуса (SREG), т.е. разрешает прерывание.
	//С этого начинается процедура обрисовки куба.
	sei();

	//Если функция bootwait() возвращает 2: переходим в режим RS-232.
	if (i == 2)
    1bc0:	c0 e0       	ldi	r28, 0x00	; 0
    1bc2:	d0 e0       	ldi	r29, 0x00	; 0

	//Результат функции bootwait(), всё кроме 2: создаёт удивительные эффекты. Бесконечный цикл (цикл навегда). =)
	while (1)
	{
		// Показывать эффекты в определённом порядке
		for (i=0; i<EFFECTS_TOTAL; i++)
    1bc4:	00 e0       	ldi	r16, 0x00	; 0
    1bc6:	10 e0       	ldi	r17, 0x00	; 0
		launch_effect(i);
    1bc8:	ce 01       	movw	r24, r28
    1bca:	0e 94 b7 0b 	call	0x176e	; 0x176e <launch_effect>

	//Результат функции bootwait(), всё кроме 2: создаёт удивительные эффекты. Бесконечный цикл (цикл навегда). =)
	while (1)
	{
		// Показывать эффекты в определённом порядке
		for (i=0; i<EFFECTS_TOTAL; i++)
    1bce:	21 96       	adiw	r28, 0x01	; 1
    1bd0:	cb 30       	cpi	r28, 0x0B	; 11
    1bd2:	d1 05       	cpc	r29, r1
    1bd4:	cc f3       	brlt	.-14     	; 0x1bc8 <main+0x20>
    1bd6:	e8 01       	movw	r28, r16
    1bd8:	f7 cf       	rjmp	.-18     	; 0x1bc8 <main+0x20>

00001bda <__divmodhi4>:
    1bda:	97 fb       	bst	r25, 7
    1bdc:	07 2e       	mov	r0, r23
    1bde:	16 f4       	brtc	.+4      	; 0x1be4 <__divmodhi4+0xa>
    1be0:	00 94       	com	r0
    1be2:	07 d0       	rcall	.+14     	; 0x1bf2 <__divmodhi4_neg1>
    1be4:	77 fd       	sbrc	r23, 7
    1be6:	09 d0       	rcall	.+18     	; 0x1bfa <__divmodhi4_neg2>
    1be8:	0e 94 01 0e 	call	0x1c02	; 0x1c02 <__udivmodhi4>
    1bec:	07 fc       	sbrc	r0, 7
    1bee:	05 d0       	rcall	.+10     	; 0x1bfa <__divmodhi4_neg2>
    1bf0:	3e f4       	brtc	.+14     	; 0x1c00 <__divmodhi4_exit>

00001bf2 <__divmodhi4_neg1>:
    1bf2:	90 95       	com	r25
    1bf4:	81 95       	neg	r24
    1bf6:	9f 4f       	sbci	r25, 0xFF	; 255
    1bf8:	08 95       	ret

00001bfa <__divmodhi4_neg2>:
    1bfa:	70 95       	com	r23
    1bfc:	61 95       	neg	r22
    1bfe:	7f 4f       	sbci	r23, 0xFF	; 255

00001c00 <__divmodhi4_exit>:
    1c00:	08 95       	ret

00001c02 <__udivmodhi4>:
    1c02:	aa 1b       	sub	r26, r26
    1c04:	bb 1b       	sub	r27, r27
    1c06:	51 e1       	ldi	r21, 0x11	; 17
    1c08:	07 c0       	rjmp	.+14     	; 0x1c18 <__udivmodhi4_ep>

00001c0a <__udivmodhi4_loop>:
    1c0a:	aa 1f       	adc	r26, r26
    1c0c:	bb 1f       	adc	r27, r27
    1c0e:	a6 17       	cp	r26, r22
    1c10:	b7 07       	cpc	r27, r23
    1c12:	10 f0       	brcs	.+4      	; 0x1c18 <__udivmodhi4_ep>
    1c14:	a6 1b       	sub	r26, r22
    1c16:	b7 0b       	sbc	r27, r23

00001c18 <__udivmodhi4_ep>:
    1c18:	88 1f       	adc	r24, r24
    1c1a:	99 1f       	adc	r25, r25
    1c1c:	5a 95       	dec	r21
    1c1e:	a9 f7       	brne	.-22     	; 0x1c0a <__udivmodhi4_loop>
    1c20:	80 95       	com	r24
    1c22:	90 95       	com	r25
    1c24:	bc 01       	movw	r22, r24
    1c26:	cd 01       	movw	r24, r26
    1c28:	08 95       	ret

00001c2a <do_rand>:
    1c2a:	8f 92       	push	r8
    1c2c:	9f 92       	push	r9
    1c2e:	af 92       	push	r10
    1c30:	bf 92       	push	r11
    1c32:	cf 92       	push	r12
    1c34:	df 92       	push	r13
    1c36:	ef 92       	push	r14
    1c38:	ff 92       	push	r15
    1c3a:	cf 93       	push	r28
    1c3c:	df 93       	push	r29
    1c3e:	ec 01       	movw	r28, r24
    1c40:	68 81       	ld	r22, Y
    1c42:	79 81       	ldd	r23, Y+1	; 0x01
    1c44:	8a 81       	ldd	r24, Y+2	; 0x02
    1c46:	9b 81       	ldd	r25, Y+3	; 0x03
    1c48:	61 15       	cp	r22, r1
    1c4a:	71 05       	cpc	r23, r1
    1c4c:	81 05       	cpc	r24, r1
    1c4e:	91 05       	cpc	r25, r1
    1c50:	21 f4       	brne	.+8      	; 0x1c5a <do_rand+0x30>
    1c52:	64 e2       	ldi	r22, 0x24	; 36
    1c54:	79 ed       	ldi	r23, 0xD9	; 217
    1c56:	8b e5       	ldi	r24, 0x5B	; 91
    1c58:	97 e0       	ldi	r25, 0x07	; 7
    1c5a:	2d e1       	ldi	r18, 0x1D	; 29
    1c5c:	33 ef       	ldi	r19, 0xF3	; 243
    1c5e:	41 e0       	ldi	r20, 0x01	; 1
    1c60:	50 e0       	ldi	r21, 0x00	; 0
    1c62:	0e 94 76 0e 	call	0x1cec	; 0x1cec <__divmodsi4>
    1c66:	49 01       	movw	r8, r18
    1c68:	5a 01       	movw	r10, r20
    1c6a:	9b 01       	movw	r18, r22
    1c6c:	ac 01       	movw	r20, r24
    1c6e:	a7 ea       	ldi	r26, 0xA7	; 167
    1c70:	b1 e4       	ldi	r27, 0x41	; 65
    1c72:	0e 94 92 0e 	call	0x1d24	; 0x1d24 <__muluhisi3>
    1c76:	6b 01       	movw	r12, r22
    1c78:	7c 01       	movw	r14, r24
    1c7a:	ac ee       	ldi	r26, 0xEC	; 236
    1c7c:	b4 ef       	ldi	r27, 0xF4	; 244
    1c7e:	a5 01       	movw	r20, r10
    1c80:	94 01       	movw	r18, r8
    1c82:	0e 94 a0 0e 	call	0x1d40	; 0x1d40 <__mulohisi3>
    1c86:	c6 0e       	add	r12, r22
    1c88:	d7 1e       	adc	r13, r23
    1c8a:	e8 1e       	adc	r14, r24
    1c8c:	f9 1e       	adc	r15, r25
    1c8e:	f7 fe       	sbrs	r15, 7
    1c90:	06 c0       	rjmp	.+12     	; 0x1c9e <do_rand+0x74>
    1c92:	81 e0       	ldi	r24, 0x01	; 1
    1c94:	c8 1a       	sub	r12, r24
    1c96:	d1 08       	sbc	r13, r1
    1c98:	e1 08       	sbc	r14, r1
    1c9a:	80 e8       	ldi	r24, 0x80	; 128
    1c9c:	f8 0a       	sbc	r15, r24
    1c9e:	c8 82       	st	Y, r12
    1ca0:	d9 82       	std	Y+1, r13	; 0x01
    1ca2:	ea 82       	std	Y+2, r14	; 0x02
    1ca4:	fb 82       	std	Y+3, r15	; 0x03
    1ca6:	e8 94       	clt
    1ca8:	d7 f8       	bld	r13, 7
    1caa:	ee 24       	eor	r14, r14
    1cac:	ff 24       	eor	r15, r15
    1cae:	c6 01       	movw	r24, r12
    1cb0:	df 91       	pop	r29
    1cb2:	cf 91       	pop	r28
    1cb4:	ff 90       	pop	r15
    1cb6:	ef 90       	pop	r14
    1cb8:	df 90       	pop	r13
    1cba:	cf 90       	pop	r12
    1cbc:	bf 90       	pop	r11
    1cbe:	af 90       	pop	r10
    1cc0:	9f 90       	pop	r9
    1cc2:	8f 90       	pop	r8
    1cc4:	08 95       	ret

00001cc6 <rand_r>:
    1cc6:	0e 94 15 0e 	call	0x1c2a	; 0x1c2a <do_rand>
    1cca:	08 95       	ret

00001ccc <rand>:
    1ccc:	80 e6       	ldi	r24, 0x60	; 96
    1cce:	90 e0       	ldi	r25, 0x00	; 0
    1cd0:	0e 94 15 0e 	call	0x1c2a	; 0x1c2a <do_rand>
    1cd4:	08 95       	ret

00001cd6 <srand>:
    1cd6:	a0 e0       	ldi	r26, 0x00	; 0
    1cd8:	b0 e0       	ldi	r27, 0x00	; 0
    1cda:	80 93 60 00 	sts	0x0060, r24
    1cde:	90 93 61 00 	sts	0x0061, r25
    1ce2:	a0 93 62 00 	sts	0x0062, r26
    1ce6:	b0 93 63 00 	sts	0x0063, r27
    1cea:	08 95       	ret

00001cec <__divmodsi4>:
    1cec:	05 2e       	mov	r0, r21
    1cee:	97 fb       	bst	r25, 7
    1cf0:	16 f4       	brtc	.+4      	; 0x1cf6 <__divmodsi4+0xa>
    1cf2:	00 94       	com	r0
    1cf4:	07 d0       	rcall	.+14     	; 0x1d04 <__divmodsi4_neg1>
    1cf6:	57 fd       	sbrc	r21, 7
    1cf8:	0d d0       	rcall	.+26     	; 0x1d14 <__divmodsi4_neg2>
    1cfa:	0e 94 a5 0e 	call	0x1d4a	; 0x1d4a <__udivmodsi4>
    1cfe:	07 fc       	sbrc	r0, 7
    1d00:	09 d0       	rcall	.+18     	; 0x1d14 <__divmodsi4_neg2>
    1d02:	7e f4       	brtc	.+30     	; 0x1d22 <__divmodsi4_exit>

00001d04 <__divmodsi4_neg1>:
    1d04:	90 95       	com	r25
    1d06:	80 95       	com	r24
    1d08:	70 95       	com	r23
    1d0a:	61 95       	neg	r22
    1d0c:	7f 4f       	sbci	r23, 0xFF	; 255
    1d0e:	8f 4f       	sbci	r24, 0xFF	; 255
    1d10:	9f 4f       	sbci	r25, 0xFF	; 255
    1d12:	08 95       	ret

00001d14 <__divmodsi4_neg2>:
    1d14:	50 95       	com	r21
    1d16:	40 95       	com	r20
    1d18:	30 95       	com	r19
    1d1a:	21 95       	neg	r18
    1d1c:	3f 4f       	sbci	r19, 0xFF	; 255
    1d1e:	4f 4f       	sbci	r20, 0xFF	; 255
    1d20:	5f 4f       	sbci	r21, 0xFF	; 255

00001d22 <__divmodsi4_exit>:
    1d22:	08 95       	ret

00001d24 <__muluhisi3>:
    1d24:	0e 94 c7 0e 	call	0x1d8e	; 0x1d8e <__umulhisi3>
    1d28:	a5 9f       	mul	r26, r21
    1d2a:	90 0d       	add	r25, r0
    1d2c:	b4 9f       	mul	r27, r20
    1d2e:	90 0d       	add	r25, r0
    1d30:	a4 9f       	mul	r26, r20
    1d32:	80 0d       	add	r24, r0
    1d34:	91 1d       	adc	r25, r1
    1d36:	11 24       	eor	r1, r1
    1d38:	08 95       	ret

00001d3a <__mulshisi3>:
    1d3a:	b7 ff       	sbrs	r27, 7
    1d3c:	0c 94 92 0e 	jmp	0x1d24	; 0x1d24 <__muluhisi3>

00001d40 <__mulohisi3>:
    1d40:	0e 94 92 0e 	call	0x1d24	; 0x1d24 <__muluhisi3>
    1d44:	82 1b       	sub	r24, r18
    1d46:	93 0b       	sbc	r25, r19
    1d48:	08 95       	ret

00001d4a <__udivmodsi4>:
    1d4a:	a1 e2       	ldi	r26, 0x21	; 33
    1d4c:	1a 2e       	mov	r1, r26
    1d4e:	aa 1b       	sub	r26, r26
    1d50:	bb 1b       	sub	r27, r27
    1d52:	fd 01       	movw	r30, r26
    1d54:	0d c0       	rjmp	.+26     	; 0x1d70 <__udivmodsi4_ep>

00001d56 <__udivmodsi4_loop>:
    1d56:	aa 1f       	adc	r26, r26
    1d58:	bb 1f       	adc	r27, r27
    1d5a:	ee 1f       	adc	r30, r30
    1d5c:	ff 1f       	adc	r31, r31
    1d5e:	a2 17       	cp	r26, r18
    1d60:	b3 07       	cpc	r27, r19
    1d62:	e4 07       	cpc	r30, r20
    1d64:	f5 07       	cpc	r31, r21
    1d66:	20 f0       	brcs	.+8      	; 0x1d70 <__udivmodsi4_ep>
    1d68:	a2 1b       	sub	r26, r18
    1d6a:	b3 0b       	sbc	r27, r19
    1d6c:	e4 0b       	sbc	r30, r20
    1d6e:	f5 0b       	sbc	r31, r21

00001d70 <__udivmodsi4_ep>:
    1d70:	66 1f       	adc	r22, r22
    1d72:	77 1f       	adc	r23, r23
    1d74:	88 1f       	adc	r24, r24
    1d76:	99 1f       	adc	r25, r25
    1d78:	1a 94       	dec	r1
    1d7a:	69 f7       	brne	.-38     	; 0x1d56 <__udivmodsi4_loop>
    1d7c:	60 95       	com	r22
    1d7e:	70 95       	com	r23
    1d80:	80 95       	com	r24
    1d82:	90 95       	com	r25
    1d84:	9b 01       	movw	r18, r22
    1d86:	ac 01       	movw	r20, r24
    1d88:	bd 01       	movw	r22, r26
    1d8a:	cf 01       	movw	r24, r30
    1d8c:	08 95       	ret

00001d8e <__umulhisi3>:
    1d8e:	a2 9f       	mul	r26, r18
    1d90:	b0 01       	movw	r22, r0
    1d92:	b3 9f       	mul	r27, r19
    1d94:	c0 01       	movw	r24, r0
    1d96:	a3 9f       	mul	r26, r19
    1d98:	01 d0       	rcall	.+2      	; 0x1d9c <__umulhisi3+0xe>
    1d9a:	b2 9f       	mul	r27, r18
    1d9c:	70 0d       	add	r23, r0
    1d9e:	81 1d       	adc	r24, r1
    1da0:	11 24       	eor	r1, r1
    1da2:	91 1d       	adc	r25, r1
    1da4:	08 95       	ret

00001da6 <_exit>:
    1da6:	f8 94       	cli

00001da8 <__stop_program>:
    1da8:	ff cf       	rjmp	.-2      	; 0x1da8 <__stop_program>
